ARM GAS  C:\Users\ADMINI~1\AppData\Local\Temp\cchjaSZb.s 			page 1


   1              		.cpu cortex-m0
   2              		.fpu softvfp
   3              		.eabi_attribute 20, 1
   4              		.eabi_attribute 21, 1
   5              		.eabi_attribute 23, 3
   6              		.eabi_attribute 24, 1
   7              		.eabi_attribute 25, 1
   8              		.eabi_attribute 26, 1
   9              		.eabi_attribute 30, 1
  10              		.eabi_attribute 34, 0
  11              		.eabi_attribute 18, 4
  12              		.code	16
  13              		.file	"main.c"
  14              		.text
  15              	.Ltext0:
  16              		.cfi_sections	.debug_frame
  17              		.section	.text.GPIOIsrHandler,"ax",%progbits
  18              		.align	2
  19              		.global	GPIOIsrHandler
  20              		.code	16
  21              		.thumb_func
  22              		.type	GPIOIsrHandler, %function
  23              	GPIOIsrHandler:
  24              	.LFB38:
  25              		.file 1 ".\\main.c"
   1:.\main.c      **** /*******************************************************************************
   2:.\main.c      **** * File Name: main.c
   3:.\main.c      **** *
   4:.\main.c      **** * Version: 1.00
   5:.\main.c      **** *
   6:.\main.c      **** * Description:
   7:.\main.c      **** *  This is the source code for the Interrupts example project of the Interrupt
   8:.\main.c      **** *  and cy_boot components.
   9:.\main.c      **** *
  10:.\main.c      **** ********************************************************************************
  11:.\main.c      **** * Copyright 2015, Cypress Semiconductor Corporation. All rights reserved.
  12:.\main.c      **** * This software is owned by Cypress Semiconductor Corporation and is protected
  13:.\main.c      **** * by and subject to worldwide patent and copyright laws and treaties.
  14:.\main.c      **** * Therefore, you may use this software only as provided in the license agreement
  15:.\main.c      **** * accompanying the software package from which you obtained this software.
  16:.\main.c      **** * CYPRESS AND ITS SUPPLIERS MAKE NO WARRANTY OF ANY KIND, EXPRESS OR IMPLIED,
  17:.\main.c      **** * WITH REGARD TO THIS SOFTWARE, INCLUDING, BUT NOT LIMITED TO, NONINFRINGEMENT,
  18:.\main.c      **** * IMPLIED WARRANTIES OF MERCHANTABILITY AND FITNESS FOR A PARTICULAR PURPOSE.
  19:.\main.c      **** *******************************************************************************/
  20:.\main.c      **** 
  21:.\main.c      **** #include <project.h>
  22:.\main.c      **** 
  23:.\main.c      **** #define HIGHE_H_PRIORITY                    (0u)
  24:.\main.c      **** #define NESTED_ISR                          (1u)
  25:.\main.c      **** #define HIGHER_PRIORITY                     (2u)
  26:.\main.c      **** #define Uartset_ISR                         (3u)
  27:.\main.c      **** #define DEFAULT_PRIORITY                    (4u)
  28:.\main.c      **** 
  29:.\main.c      **** 
  30:.\main.c      **** #if(CY_PSOC4)
  31:.\main.c      ****     #define LIGHT_OFF                       (1u)
  32:.\main.c      ****     #define LIGHT_ON                        (0u)
ARM GAS  C:\Users\ADMINI~1\AppData\Local\Temp\cchjaSZb.s 			page 2


  33:.\main.c      **** #else
  34:.\main.c      ****     #define LIGHT_OFF                       (0u)
  35:.\main.c      ****     #define LIGHT_ON                        (1u)
  36:.\main.c      **** #endif /* (CY_PSOC4) */
  37:.\main.c      **** 
  38:.\main.c      **** /* Interrupt prototypes */
  39:.\main.c      **** CY_ISR_PROTO(GPIOIsrHandler);
  40:.\main.c      **** CY_ISR_PROTO(NestedIsrHandler);
  41:.\main.c      **** CY_ISR_PROTO(UART_1_SCB_IRQ_Interrupt);
  42:.\main.c      **** 
  43:.\main.c      **** /*******************************************************************************
  44:.\main.c      **** * Function Name: main
  45:.\main.c      **** ********************************************************************************
  46:.\main.c      **** *
  47:.\main.c      **** * Summary:
  48:.\main.c      **** *  At the beginning of the main function, the GPIO interrupt is set up and
  49:.\main.c      **** *  enabled. After that, initial priority for the GPIO interrupt is changed from
  50:.\main.c      **** *  1 to 3 (DEFAULT_PRIORITY). The custom interrupt (nested) is configured
  51:.\main.c      **** *  (sets up, sets priority) and enabled. In GPIOIsrHandler, the isr_GPIO
  52:.\main.c      **** *  pending interrupt clears, the green LED turns on, the nested software
  53:.\main.c      **** *  interrupt causes after approximately 1 second delay, green LED turns off.
  54:.\main.c      **** *
  55:.\main.c      **** * Parameters:
  56:.\main.c      **** *  None.
  57:.\main.c      **** *
  58:.\main.c      **** * Return:
  59:.\main.c      **** *  None.
  60:.\main.c      **** *
  61:.\main.c      **** *******************************************************************************/
  62:.\main.c      **** int main()
  63:.\main.c      **** {
  64:.\main.c      ****     uint32 ch=0;
  65:.\main.c      ****     ///UART////
  66:.\main.c      ****     UART_1_Start();
  67:.\main.c      ****     UART_1_SCB_IRQ_Start();
  68:.\main.c      ****     UART_1_UartPutString("Test");
  69:.\main.c      ****     
  70:.\main.c      ****     /* Set initial state (off) for LED */
  71:.\main.c      ****     LED_Isr_Write(LIGHT_OFF);
  72:.\main.c      ****     LED_Nested_Write(LIGHT_OFF);
  73:.\main.c      **** 
  74:.\main.c      ****     /* Sets up the GPIO interrupt and enables it */
  75:.\main.c      ****     ISRGPIO_StartEx(GPIOIsrHandler);
  76:.\main.c      **** 
  77:.\main.c      ****     /* Changes initial priority for the GPIO interrupt */
  78:.\main.c      ****     ISRGPIO_SetPriority(DEFAULT_PRIORITY);
  79:.\main.c      **** 
  80:.\main.c      ****     /* Sets up the nested interrupt, sets priority and enables it */
  81:.\main.c      ****     //CyIntSetVector(NESTED_ISR,NestedIsrHandler);
  82:.\main.c      ****     //CyIntSetPriority(NESTED_ISR,HIGHER_PRIORITY);
  83:.\main.c      ****     //CyIntEnable(NESTED_ISR);
  84:.\main.c      **** 
  85:.\main.c      ****     //CyIntSetVector(Uartset_ISR,UART_1_SCB_IRQ_Interrupt);
  86:.\main.c      ****     //CyIntSetPriority(Uartset_ISR,HIGHE_H_PRIORITY);
  87:.\main.c      ****    // CyIntEnable(Uartset_ISR);
  88:.\main.c      **** 
  89:.\main.c      ****     
ARM GAS  C:\Users\ADMINI~1\AppData\Local\Temp\cchjaSZb.s 			page 3


  90:.\main.c      ****     
  91:.\main.c      ****     
  92:.\main.c      ****     /* Enable global interrupts */
  93:.\main.c      ****     CyGlobalIntEnable;
  94:.\main.c      **** 
  95:.\main.c      ****     for(;;)
  96:.\main.c      ****     {
  97:.\main.c      ****        //  ch = UART_1_UartGetChar();
  98:.\main.c      ****         //    if (0u != ch)
  99:.\main.c      ****        // {
 100:.\main.c      ****          //   UART_1_UartPutChar(ch);
 101:.\main.c      ****        // } 
 102:.\main.c      ****     }
 103:.\main.c      **** }
 104:.\main.c      **** 
 105:.\main.c      **** 
 106:.\main.c      **** /*******************************************************************************
 107:.\main.c      **** * Function Name: GPIOIsrHandler
 108:.\main.c      **** ********************************************************************************
 109:.\main.c      **** * Summary:
 110:.\main.c      **** *  The interrupt handler for GPIO interrupts.
 111:.\main.c      **** *  Clears a pending Interrupt.
 112:.\main.c      **** *  Clears a pin Interrupt.
 113:.\main.c      **** *  Blinks the LED with the LED_Isr pin.
 114:.\main.c      **** *  Calls nested interrupt.
 115:.\main.c      **** 
 116:.\main.c      **** *
 117:.\main.c      **** * Parameters:
 118:.\main.c      **** *  None
 119:.\main.c      **** *
 120:.\main.c      **** * Return:
 121:.\main.c      **** *  None
 122:.\main.c      **** *
 123:.\main.c      **** *******************************************************************************/
 124:.\main.c      **** CY_ISR(GPIOIsrHandler)
 125:.\main.c      **** {
  26              		.loc 1 125 0
  27              		.cfi_startproc
  28 0000 08B5     		push	{r3, lr}
  29              		.cfi_def_cfa_offset 8
  30              		.cfi_offset 3, -8
  31              		.cfi_offset 14, -4
 126:.\main.c      ****     /* Clear pending Interrupt */
 127:.\main.c      ****     ISRGPIO_ClearPending();
  32              		.loc 1 127 0
  33 0002 FFF7FEFF 		bl	ISRGPIO_ClearPending
  34              	.LVL0:
 128:.\main.c      ****     
 129:.\main.c      ****     /* Clear pin Interrupt */
 130:.\main.c      ****     Pin_Sw_ClearInterrupt();
  35              		.loc 1 130 0
  36 0006 FFF7FEFF 		bl	Pin_Sw_ClearInterrupt
  37              	.LVL1:
 131:.\main.c      ****     
 132:.\main.c      ****     /* Turn On the LED */
 133:.\main.c      ****     LED_Isr_Write(LIGHT_ON);
  38              		.loc 1 133 0
ARM GAS  C:\Users\ADMINI~1\AppData\Local\Temp\cchjaSZb.s 			page 4


  39 000a 0020     		mov	r0, #0
  40 000c FFF7FEFF 		bl	LED_Isr_Write
  41              	.LVL2:
 134:.\main.c      **** 
 135:.\main.c      ****     /* Cause nested software interrupt after 1000 ms */
 136:.\main.c      ****     CyDelay(1000u);
  42              		.loc 1 136 0
  43 0010 FA20     		mov	r0, #250
  44 0012 8000     		lsl	r0, r0, #2
  45 0014 FFF7FEFF 		bl	CyDelay
  46              	.LVL3:
 137:.\main.c      ****     CyIntSetPending(NESTED_ISR);
  47              		.loc 1 137 0
  48 0018 0120     		mov	r0, #1
  49 001a FFF7FEFF 		bl	CyIntSetPending
  50              	.LVL4:
 138:.\main.c      **** 
 139:.\main.c      ****     /* Turn Off the LED */
 140:.\main.c      ****     LED_Isr_Write(LIGHT_OFF);
  51              		.loc 1 140 0
  52 001e 0120     		mov	r0, #1
  53 0020 FFF7FEFF 		bl	LED_Isr_Write
  54              	.LVL5:
 141:.\main.c      **** }
  55              		.loc 1 141 0
  56              		@ sp needed
  57 0024 08BD     		pop	{r3, pc}
  58              		.cfi_endproc
  59              	.LFE38:
  60              		.size	GPIOIsrHandler, .-GPIOIsrHandler
  61 0026 C046     		.section	.text.main,"ax",%progbits
  62              		.align	2
  63              		.global	main
  64              		.code	16
  65              		.thumb_func
  66              		.type	main, %function
  67              	main:
  68              	.LFB37:
  63:.\main.c      ****     uint32 ch=0;
  69              		.loc 1 63 0
  70              		.cfi_startproc
  71 0000 08B5     		push	{r3, lr}
  72              		.cfi_def_cfa_offset 8
  73              		.cfi_offset 3, -8
  74              		.cfi_offset 14, -4
  75              	.LVL6:
  66:.\main.c      ****     UART_1_SCB_IRQ_Start();
  76              		.loc 1 66 0
  77 0002 FFF7FEFF 		bl	UART_1_Start
  78              	.LVL7:
  67:.\main.c      ****     UART_1_UartPutString("Test");
  79              		.loc 1 67 0
  80 0006 FFF7FEFF 		bl	UART_1_SCB_IRQ_Start
  81              	.LVL8:
  68:.\main.c      ****     
  82              		.loc 1 68 0
  83 000a 0848     		ldr	r0, .L4
ARM GAS  C:\Users\ADMINI~1\AppData\Local\Temp\cchjaSZb.s 			page 5


  84 000c FFF7FEFF 		bl	UART_1_UartPutString
  85              	.LVL9:
  71:.\main.c      ****     LED_Nested_Write(LIGHT_OFF);
  86              		.loc 1 71 0
  87 0010 0120     		mov	r0, #1
  88 0012 FFF7FEFF 		bl	LED_Isr_Write
  89              	.LVL10:
  72:.\main.c      **** 
  90              		.loc 1 72 0
  91 0016 0120     		mov	r0, #1
  92 0018 FFF7FEFF 		bl	LED_Nested_Write
  93              	.LVL11:
  75:.\main.c      **** 
  94              		.loc 1 75 0
  95 001c 0448     		ldr	r0, .L4+4
  96 001e FFF7FEFF 		bl	ISRGPIO_StartEx
  97              	.LVL12:
  78:.\main.c      **** 
  98              		.loc 1 78 0
  99 0022 0420     		mov	r0, #4
 100 0024 FFF7FEFF 		bl	ISRGPIO_SetPriority
 101              	.LVL13:
  93:.\main.c      **** 
 102              		.loc 1 93 0
 103              	@ 93 ".\main.c" 1
 104 0028 62B6     		CPSIE   i
 105              	@ 0 "" 2
 106              		.code	16
 107              	.L3:
 102:.\main.c      **** }
 108              		.loc 1 102 0 discriminator 1
 109 002a FEE7     		b	.L3
 110              	.L5:
 111              		.align	2
 112              	.L4:
 113 002c 00000000 		.word	.LC0
 114 0030 00000000 		.word	GPIOIsrHandler
 115              		.cfi_endproc
 116              	.LFE37:
 117              		.size	main, .-main
 118              		.section	.text.NestedIsrHandler,"ax",%progbits
 119              		.align	2
 120              		.global	NestedIsrHandler
 121              		.code	16
 122              		.thumb_func
 123              		.type	NestedIsrHandler, %function
 124              	NestedIsrHandler:
 125              	.LFB39:
 142:.\main.c      **** 
 143:.\main.c      **** 
 144:.\main.c      **** /*******************************************************************************
 145:.\main.c      **** * Function Name: NestedIsrHandler
 146:.\main.c      **** ********************************************************************************
 147:.\main.c      **** * Summary:
 148:.\main.c      **** *  The interrupt handler for nested interrupt.
 149:.\main.c      **** *  Blinks the LED with the LED_Nested pin.
 150:.\main.c      **** *
ARM GAS  C:\Users\ADMINI~1\AppData\Local\Temp\cchjaSZb.s 			page 6


 151:.\main.c      **** * Parameters:
 152:.\main.c      **** *  None
 153:.\main.c      **** *
 154:.\main.c      **** * Return:
 155:.\main.c      **** *  None
 156:.\main.c      **** *
 157:.\main.c      **** *******************************************************************************/
 158:.\main.c      **** CY_ISR(NestedIsrHandler)
 159:.\main.c      **** {
 126              		.loc 1 159 0
 127              		.cfi_startproc
 128 0000 10B5     		push	{r4, lr}
 129              		.cfi_def_cfa_offset 8
 130              		.cfi_offset 4, -8
 131              		.cfi_offset 14, -4
 160:.\main.c      ****     /* Clear pending Interrupt */
 161:.\main.c      ****     CyIntClearPending(NESTED_ISR);
 132              		.loc 1 161 0
 133 0002 0120     		mov	r0, #1
 134 0004 FFF7FEFF 		bl	CyIntClearPending
 135              	.LVL14:
 162:.\main.c      **** 
 163:.\main.c      ****     /* Turn On the LED for 1000 ms */
 164:.\main.c      ****     LED_Nested_Write(LIGHT_ON);
 136              		.loc 1 164 0
 137 0008 0020     		mov	r0, #0
 138 000a FFF7FEFF 		bl	LED_Nested_Write
 139              	.LVL15:
 165:.\main.c      ****     CyDelay(1000u);
 140              		.loc 1 165 0
 141 000e FA24     		mov	r4, #250
 142 0010 A400     		lsl	r4, r4, #2
 143 0012 201C     		mov	r0, r4
 144 0014 FFF7FEFF 		bl	CyDelay
 145              	.LVL16:
 166:.\main.c      **** 
 167:.\main.c      ****     /* Turn Off the LED and wait for 1000 ms */
 168:.\main.c      ****     LED_Nested_Write(LIGHT_OFF);
 146              		.loc 1 168 0
 147 0018 0120     		mov	r0, #1
 148 001a FFF7FEFF 		bl	LED_Nested_Write
 149              	.LVL17:
 169:.\main.c      ****     CyDelay(1000u);
 150              		.loc 1 169 0
 151 001e 201C     		mov	r0, r4
 152 0020 FFF7FEFF 		bl	CyDelay
 153              	.LVL18:
 170:.\main.c      **** }
 154              		.loc 1 170 0
 155              		@ sp needed
 156 0024 10BD     		pop	{r4, pc}
 157              		.cfi_endproc
 158              	.LFE39:
 159              		.size	NestedIsrHandler, .-NestedIsrHandler
 160 0026 C046     		.section	.text.UART_1_SCB_IRQ_Interrupt,"ax",%progbits
 161              		.align	2
 162              		.global	UART_1_SCB_IRQ_Interrupt
ARM GAS  C:\Users\ADMINI~1\AppData\Local\Temp\cchjaSZb.s 			page 7


 163              		.code	16
 164              		.thumb_func
 165              		.type	UART_1_SCB_IRQ_Interrupt, %function
 166              	UART_1_SCB_IRQ_Interrupt:
 167              	.LFB40:
 171:.\main.c      **** 
 172:.\main.c      **** 
 173:.\main.c      **** /*******************************************************************************
 174:.\main.c      **** * Function Name: NestedIsrHandler
 175:.\main.c      **** ********************************************************************************
 176:.\main.c      **** * Summary:
 177:.\main.c      **** *  The interrupt handler for nested interrupt.
 178:.\main.c      **** *  Blinks the LED with the LED_Nested pin.
 179:.\main.c      **** *
 180:.\main.c      **** * Parameters:
 181:.\main.c      **** *  None
 182:.\main.c      **** *
 183:.\main.c      **** * Return:
 184:.\main.c      **** *  None
 185:.\main.c      **** *
 186:.\main.c      **** *******************************************************************************/
 187:.\main.c      **** CY_ISR(UART_1_SCB_IRQ_Interrupt)
 188:.\main.c      **** {
 168              		.loc 1 188 0
 169              		.cfi_startproc
 170 0000 08B5     		push	{r3, lr}
 171              		.cfi_def_cfa_offset 8
 172              		.cfi_offset 3, -8
 173              		.cfi_offset 14, -4
 189:.\main.c      ****    #ifdef UART_1_SCB_IRQ_INTERRUPT_INTERRUPT_CALLBACK
 190:.\main.c      ****         UART_1_SCB_IRQ_Interrupt_InterruptCallback();
 191:.\main.c      ****     #endif /* UART_1_SCB_IRQ_INTERRUPT_INTERRUPT_CALLBACK */  
 192:.\main.c      ****     
 193:.\main.c      ****     UART_1_ClearRxInterruptSource(UART_1_INTR_RX_NOT_EMPTY);
 174              		.loc 1 193 0
 175 0002 0423     		mov	r3, #4
 176 0004 074A     		ldr	r2, .L9
 177 0006 1360     		str	r3, [r2]
 194:.\main.c      **** 
 195:.\main.c      ****     if(UART_1_GetRxInterruptSourceMasked()&UART_1_INTR_RX_NOT_EMPTY)
 178              		.loc 1 195 0
 179 0008 074A     		ldr	r2, .L9+4
 180 000a 1268     		ldr	r2, [r2]
 181 000c 1342     		tst	r3, r2
 182 000e 05D0     		beq	.L8
 183              	.LVL19:
 184              	.LBB2:
 196:.\main.c      ****     {
 197:.\main.c      ****         uint32 ReceviceData=0;
 198:.\main.c      ****         ReceviceData=UART_1_SpiUartReadRxData();
 185              		.loc 1 198 0
 186 0010 FFF7FEFF 		bl	UART_1_SpiUartReadRxData
 187              	.LVL20:
 199:.\main.c      ****         UART_1_UartPutChar((uint8_t)ReceviceData);
 188              		.loc 1 199 0
 189 0014 FF23     		mov	r3, #255
 190 0016 1840     		and	r0, r3
ARM GAS  C:\Users\ADMINI~1\AppData\Local\Temp\cchjaSZb.s 			page 8


 191              	.LVL21:
 192 0018 FFF7FEFF 		bl	UART_1_SpiUartWriteTxData
 193              	.LVL22:
 194              	.L8:
 195              	.LBE2:
 200:.\main.c      ****     }
 201:.\main.c      ****     UART_1_SpiUartClearRxBuffer();
 196              		.loc 1 201 0
 197 001c FFF7FEFF 		bl	UART_1_SpiUartClearRxBuffer
 198              	.LVL23:
 202:.\main.c      **** }
 199              		.loc 1 202 0
 200              		@ sp needed
 201 0020 08BD     		pop	{r3, pc}
 202              	.L10:
 203 0022 C046     		.align	2
 204              	.L9:
 205 0024 C00F2440 		.word	1076105152
 206 0028 CC0F2440 		.word	1076105164
 207              		.cfi_endproc
 208              	.LFE40:
 209              		.size	UART_1_SCB_IRQ_Interrupt, .-UART_1_SCB_IRQ_Interrupt
 210              		.section	.rodata.str1.4,"aMS",%progbits,1
 211              		.align	2
 212              	.LC0:
 213 0000 54657374 		.ascii	"Test\000"
 213      00
 214 0005 000000   		.text
 215              	.Letext0:
 216              		.file 2 "d:\\program files (x86)\\cypress\\psoc creator\\3.3\\psoc creator\\import\\gnu\\arm\\4.9.
 217              		.file 3 "d:\\program files (x86)\\cypress\\psoc creator\\3.3\\psoc creator\\import\\gnu\\arm\\4.9.
 218              		.file 4 "Generated_Source\\PSoC4/cytypes.h"
 219              		.file 5 "Generated_Source\\PSoC4/LED_Isr.h"
 220              		.file 6 "Generated_Source\\PSoC4/CyLib.h"
 221              		.file 7 "Generated_Source\\PSoC4/ISRGPIO.h"
 222              		.file 8 "Generated_Source\\PSoC4/UART_1.h"
 223              		.file 9 "Generated_Source\\PSoC4/UART_1_SCB_IRQ.h"
 224              		.file 10 "Generated_Source\\PSoC4/UART_1_SPI_UART.h"
 225              		.file 11 "Generated_Source\\PSoC4/LED_Nested.h"
 226              		.file 12 "Generated_Source\\PSoC4/Pin_Sw.h"