ARM GAS  C:\Users\ADMINI~1\AppData\Local\Temp\ccT99Q0X.s 			page 1


   1              		.cpu cortex-m0
   2              		.fpu softvfp
   3              		.eabi_attribute 20, 1
   4              		.eabi_attribute 21, 1
   5              		.eabi_attribute 23, 3
   6              		.eabi_attribute 24, 1
   7              		.eabi_attribute 25, 1
   8              		.eabi_attribute 26, 1
   9              		.eabi_attribute 30, 1
  10              		.eabi_attribute 34, 0
  11              		.eabi_attribute 18, 4
  12              		.code	16
  13              		.file	"UART_1_UART.c"
  14              		.text
  15              	.Ltext0:
  16              		.cfi_sections	.debug_frame
  17              		.section	.text.UART_1_UartInit,"ax",%progbits
  18              		.align	2
  19              		.global	UART_1_UartInit
  20              		.code	16
  21              		.thumb_func
  22              		.type	UART_1_UartInit, %function
  23              	UART_1_UartInit:
  24              	.LFB2:
  25              		.file 1 ".\\Generated_Source\\PSoC4\\UART_1_UART.c"
   1:.\Generated_Source\PSoC4/UART_1_UART.c **** /*******************************************************************************
   2:.\Generated_Source\PSoC4/UART_1_UART.c **** * File Name: UART_1_UART.c
   3:.\Generated_Source\PSoC4/UART_1_UART.c **** * Version 3.10
   4:.\Generated_Source\PSoC4/UART_1_UART.c **** *
   5:.\Generated_Source\PSoC4/UART_1_UART.c **** * Description:
   6:.\Generated_Source\PSoC4/UART_1_UART.c **** *  This file provides the source code to the API for the SCB Component in
   7:.\Generated_Source\PSoC4/UART_1_UART.c **** *  UART mode.
   8:.\Generated_Source\PSoC4/UART_1_UART.c **** *
   9:.\Generated_Source\PSoC4/UART_1_UART.c **** * Note:
  10:.\Generated_Source\PSoC4/UART_1_UART.c **** *
  11:.\Generated_Source\PSoC4/UART_1_UART.c **** *******************************************************************************
  12:.\Generated_Source\PSoC4/UART_1_UART.c **** * Copyright 2013-2015, Cypress Semiconductor Corporation.  All rights reserved.
  13:.\Generated_Source\PSoC4/UART_1_UART.c **** * You may use this file only in accordance with the license, terms, conditions,
  14:.\Generated_Source\PSoC4/UART_1_UART.c **** * disclaimers, and limitations in the end user license agreement accompanying
  15:.\Generated_Source\PSoC4/UART_1_UART.c **** * the software package with which this file was provided.
  16:.\Generated_Source\PSoC4/UART_1_UART.c **** *******************************************************************************/
  17:.\Generated_Source\PSoC4/UART_1_UART.c **** 
  18:.\Generated_Source\PSoC4/UART_1_UART.c **** #include "UART_1_PVT.h"
  19:.\Generated_Source\PSoC4/UART_1_UART.c **** #include "UART_1_SPI_UART_PVT.h"
  20:.\Generated_Source\PSoC4/UART_1_UART.c **** #include "cyapicallbacks.h"
  21:.\Generated_Source\PSoC4/UART_1_UART.c **** 
  22:.\Generated_Source\PSoC4/UART_1_UART.c **** #if(UART_1_SCB_MODE_UNCONFIG_CONST_CFG)
  23:.\Generated_Source\PSoC4/UART_1_UART.c **** 
  24:.\Generated_Source\PSoC4/UART_1_UART.c ****     /***************************************
  25:.\Generated_Source\PSoC4/UART_1_UART.c ****     *  Configuration Structure Initialization
  26:.\Generated_Source\PSoC4/UART_1_UART.c ****     ***************************************/
  27:.\Generated_Source\PSoC4/UART_1_UART.c **** 
  28:.\Generated_Source\PSoC4/UART_1_UART.c ****     const UART_1_UART_INIT_STRUCT UART_1_configUart =
  29:.\Generated_Source\PSoC4/UART_1_UART.c ****     {
  30:.\Generated_Source\PSoC4/UART_1_UART.c ****         UART_1_UART_SUB_MODE,
  31:.\Generated_Source\PSoC4/UART_1_UART.c ****         UART_1_UART_DIRECTION,
  32:.\Generated_Source\PSoC4/UART_1_UART.c ****         UART_1_UART_DATA_BITS_NUM,
ARM GAS  C:\Users\ADMINI~1\AppData\Local\Temp\ccT99Q0X.s 			page 2


  33:.\Generated_Source\PSoC4/UART_1_UART.c ****         UART_1_UART_PARITY_TYPE,
  34:.\Generated_Source\PSoC4/UART_1_UART.c ****         UART_1_UART_STOP_BITS_NUM,
  35:.\Generated_Source\PSoC4/UART_1_UART.c ****         UART_1_UART_OVS_FACTOR,
  36:.\Generated_Source\PSoC4/UART_1_UART.c ****         UART_1_UART_IRDA_LOW_POWER,
  37:.\Generated_Source\PSoC4/UART_1_UART.c ****         UART_1_UART_MEDIAN_FILTER_ENABLE,
  38:.\Generated_Source\PSoC4/UART_1_UART.c ****         UART_1_UART_RETRY_ON_NACK,
  39:.\Generated_Source\PSoC4/UART_1_UART.c ****         UART_1_UART_IRDA_POLARITY,
  40:.\Generated_Source\PSoC4/UART_1_UART.c ****         UART_1_UART_DROP_ON_PARITY_ERR,
  41:.\Generated_Source\PSoC4/UART_1_UART.c ****         UART_1_UART_DROP_ON_FRAME_ERR,
  42:.\Generated_Source\PSoC4/UART_1_UART.c ****         UART_1_UART_WAKE_ENABLE,
  43:.\Generated_Source\PSoC4/UART_1_UART.c ****         0u,
  44:.\Generated_Source\PSoC4/UART_1_UART.c ****         NULL,
  45:.\Generated_Source\PSoC4/UART_1_UART.c ****         0u,
  46:.\Generated_Source\PSoC4/UART_1_UART.c ****         NULL,
  47:.\Generated_Source\PSoC4/UART_1_UART.c ****         UART_1_UART_MP_MODE_ENABLE,
  48:.\Generated_Source\PSoC4/UART_1_UART.c ****         UART_1_UART_MP_ACCEPT_ADDRESS,
  49:.\Generated_Source\PSoC4/UART_1_UART.c ****         UART_1_UART_MP_RX_ADDRESS,
  50:.\Generated_Source\PSoC4/UART_1_UART.c ****         UART_1_UART_MP_RX_ADDRESS_MASK,
  51:.\Generated_Source\PSoC4/UART_1_UART.c ****         (uint32) UART_1_SCB_IRQ_INTERNAL,
  52:.\Generated_Source\PSoC4/UART_1_UART.c ****         UART_1_UART_INTR_RX_MASK,
  53:.\Generated_Source\PSoC4/UART_1_UART.c ****         UART_1_UART_RX_TRIGGER_LEVEL,
  54:.\Generated_Source\PSoC4/UART_1_UART.c ****         UART_1_UART_INTR_TX_MASK,
  55:.\Generated_Source\PSoC4/UART_1_UART.c ****         UART_1_UART_TX_TRIGGER_LEVEL,
  56:.\Generated_Source\PSoC4/UART_1_UART.c ****         (uint8) UART_1_UART_BYTE_MODE_ENABLE,
  57:.\Generated_Source\PSoC4/UART_1_UART.c ****         (uint8) UART_1_UART_CTS_ENABLE,
  58:.\Generated_Source\PSoC4/UART_1_UART.c ****         (uint8) UART_1_UART_CTS_POLARITY,
  59:.\Generated_Source\PSoC4/UART_1_UART.c ****         (uint8) UART_1_UART_RTS_POLARITY,
  60:.\Generated_Source\PSoC4/UART_1_UART.c ****         (uint8) UART_1_UART_RTS_FIFO_LEVEL
  61:.\Generated_Source\PSoC4/UART_1_UART.c ****     };
  62:.\Generated_Source\PSoC4/UART_1_UART.c **** 
  63:.\Generated_Source\PSoC4/UART_1_UART.c **** 
  64:.\Generated_Source\PSoC4/UART_1_UART.c ****     /*******************************************************************************
  65:.\Generated_Source\PSoC4/UART_1_UART.c ****     * Function Name: UART_1_UartInit
  66:.\Generated_Source\PSoC4/UART_1_UART.c ****     ********************************************************************************
  67:.\Generated_Source\PSoC4/UART_1_UART.c ****     *
  68:.\Generated_Source\PSoC4/UART_1_UART.c ****     * Summary:
  69:.\Generated_Source\PSoC4/UART_1_UART.c ****     *  Configures the SCB for the UART operation.
  70:.\Generated_Source\PSoC4/UART_1_UART.c ****     *
  71:.\Generated_Source\PSoC4/UART_1_UART.c ****     * Parameters:
  72:.\Generated_Source\PSoC4/UART_1_UART.c ****     *  config:  Pointer to a structure that contains the following ordered list of
  73:.\Generated_Source\PSoC4/UART_1_UART.c ****     *           fields. These fields match the selections available in the
  74:.\Generated_Source\PSoC4/UART_1_UART.c ****     *           customizer.
  75:.\Generated_Source\PSoC4/UART_1_UART.c ****     *
  76:.\Generated_Source\PSoC4/UART_1_UART.c ****     * Return:
  77:.\Generated_Source\PSoC4/UART_1_UART.c ****     *  None
  78:.\Generated_Source\PSoC4/UART_1_UART.c ****     *
  79:.\Generated_Source\PSoC4/UART_1_UART.c ****     *******************************************************************************/
  80:.\Generated_Source\PSoC4/UART_1_UART.c ****     void UART_1_UartInit(const UART_1_UART_INIT_STRUCT *config)
  81:.\Generated_Source\PSoC4/UART_1_UART.c ****     {
  82:.\Generated_Source\PSoC4/UART_1_UART.c ****         uint32 pinsConfig;
  83:.\Generated_Source\PSoC4/UART_1_UART.c **** 
  84:.\Generated_Source\PSoC4/UART_1_UART.c ****         if (NULL == config)
  85:.\Generated_Source\PSoC4/UART_1_UART.c ****         {
  86:.\Generated_Source\PSoC4/UART_1_UART.c ****             CYASSERT(0u != 0u); /* Halt execution due to bad function parameter */
  87:.\Generated_Source\PSoC4/UART_1_UART.c ****         }
  88:.\Generated_Source\PSoC4/UART_1_UART.c ****         else
  89:.\Generated_Source\PSoC4/UART_1_UART.c ****         {
ARM GAS  C:\Users\ADMINI~1\AppData\Local\Temp\ccT99Q0X.s 			page 3


  90:.\Generated_Source\PSoC4/UART_1_UART.c ****             /* Get direction to configure UART pins: TX, RX or TX+RX */
  91:.\Generated_Source\PSoC4/UART_1_UART.c ****             pinsConfig  = config->direction;
  92:.\Generated_Source\PSoC4/UART_1_UART.c **** 
  93:.\Generated_Source\PSoC4/UART_1_UART.c ****         #if !(UART_1_CY_SCBIP_V0 || UART_1_CY_SCBIP_V1)
  94:.\Generated_Source\PSoC4/UART_1_UART.c ****             /* Add RTS and CTS pins to configure */
  95:.\Generated_Source\PSoC4/UART_1_UART.c ****             pinsConfig |= (0u != config->rtsRxFifoLevel) ? (UART_1_UART_RTS_PIN_ENABLE) : (0u);
  96:.\Generated_Source\PSoC4/UART_1_UART.c ****             pinsConfig |= (0u != config->enableCts)      ? (UART_1_UART_CTS_PIN_ENABLE) : (0u);
  97:.\Generated_Source\PSoC4/UART_1_UART.c ****         #endif /* !(UART_1_CY_SCBIP_V0 || UART_1_CY_SCBIP_V1) */
  98:.\Generated_Source\PSoC4/UART_1_UART.c **** 
  99:.\Generated_Source\PSoC4/UART_1_UART.c ****             /* Configure pins */
 100:.\Generated_Source\PSoC4/UART_1_UART.c ****             UART_1_SetPins(UART_1_SCB_MODE_UART, config->mode, pinsConfig);
 101:.\Generated_Source\PSoC4/UART_1_UART.c **** 
 102:.\Generated_Source\PSoC4/UART_1_UART.c ****             /* Store internal configuration */
 103:.\Generated_Source\PSoC4/UART_1_UART.c ****             UART_1_scbMode       = (uint8) UART_1_SCB_MODE_UART;
 104:.\Generated_Source\PSoC4/UART_1_UART.c ****             UART_1_scbEnableWake = (uint8) config->enableWake;
 105:.\Generated_Source\PSoC4/UART_1_UART.c ****             UART_1_scbEnableIntr = (uint8) config->enableInterrupt;
 106:.\Generated_Source\PSoC4/UART_1_UART.c **** 
 107:.\Generated_Source\PSoC4/UART_1_UART.c ****             /* Set RX direction internal variables */
 108:.\Generated_Source\PSoC4/UART_1_UART.c ****             UART_1_rxBuffer      =         config->rxBuffer;
 109:.\Generated_Source\PSoC4/UART_1_UART.c ****             UART_1_rxDataBits    = (uint8) config->dataBits;
 110:.\Generated_Source\PSoC4/UART_1_UART.c ****             UART_1_rxBufferSize  = (uint8) config->rxBufferSize;
 111:.\Generated_Source\PSoC4/UART_1_UART.c **** 
 112:.\Generated_Source\PSoC4/UART_1_UART.c ****             /* Set TX direction internal variables */
 113:.\Generated_Source\PSoC4/UART_1_UART.c ****             UART_1_txBuffer      =         config->txBuffer;
 114:.\Generated_Source\PSoC4/UART_1_UART.c ****             UART_1_txDataBits    = (uint8) config->dataBits;
 115:.\Generated_Source\PSoC4/UART_1_UART.c ****             UART_1_txBufferSize  = (uint8) config->txBufferSize;
 116:.\Generated_Source\PSoC4/UART_1_UART.c **** 
 117:.\Generated_Source\PSoC4/UART_1_UART.c ****             /* Configure UART interface */
 118:.\Generated_Source\PSoC4/UART_1_UART.c ****             if(UART_1_UART_MODE_IRDA == config->mode)
 119:.\Generated_Source\PSoC4/UART_1_UART.c ****             {
 120:.\Generated_Source\PSoC4/UART_1_UART.c ****                 /* OVS settings: IrDA */
 121:.\Generated_Source\PSoC4/UART_1_UART.c ****                 UART_1_CTRL_REG  = ((0u != config->enableIrdaLowPower) ?
 122:.\Generated_Source\PSoC4/UART_1_UART.c ****                                                 (UART_1_UART_GET_CTRL_OVS_IRDA_LP(config->oversampl
 123:.\Generated_Source\PSoC4/UART_1_UART.c ****                                                 (UART_1_CTRL_OVS_IRDA_OVS16));
 124:.\Generated_Source\PSoC4/UART_1_UART.c ****             }
 125:.\Generated_Source\PSoC4/UART_1_UART.c ****             else
 126:.\Generated_Source\PSoC4/UART_1_UART.c ****             {
 127:.\Generated_Source\PSoC4/UART_1_UART.c ****                 /* OVS settings: UART and SmartCard */
 128:.\Generated_Source\PSoC4/UART_1_UART.c ****                 UART_1_CTRL_REG  = UART_1_GET_CTRL_OVS(config->oversample);
 129:.\Generated_Source\PSoC4/UART_1_UART.c ****             }
 130:.\Generated_Source\PSoC4/UART_1_UART.c **** 
 131:.\Generated_Source\PSoC4/UART_1_UART.c ****             UART_1_CTRL_REG     |= UART_1_GET_CTRL_BYTE_MODE  (config->enableByteMode)      |
 132:.\Generated_Source\PSoC4/UART_1_UART.c ****                                              UART_1_GET_CTRL_ADDR_ACCEPT(config->multiprocAcceptAdd
 133:.\Generated_Source\PSoC4/UART_1_UART.c ****                                              UART_1_CTRL_UART;
 134:.\Generated_Source\PSoC4/UART_1_UART.c **** 
 135:.\Generated_Source\PSoC4/UART_1_UART.c ****             /* Configure sub-mode: UART, SmartCard or IrDA */
 136:.\Generated_Source\PSoC4/UART_1_UART.c ****             UART_1_UART_CTRL_REG = UART_1_GET_UART_CTRL_MODE(config->mode);
 137:.\Generated_Source\PSoC4/UART_1_UART.c **** 
 138:.\Generated_Source\PSoC4/UART_1_UART.c ****             /* Configure RX direction */
 139:.\Generated_Source\PSoC4/UART_1_UART.c ****             UART_1_UART_RX_CTRL_REG = UART_1_GET_UART_RX_CTRL_MODE(config->stopBits)              |
 140:.\Generated_Source\PSoC4/UART_1_UART.c ****                                         UART_1_GET_UART_RX_CTRL_POLARITY(config->enableInvertedRx) 
 141:.\Generated_Source\PSoC4/UART_1_UART.c ****                                         UART_1_GET_UART_RX_CTRL_MP_MODE(config->enableMultiproc)   
 142:.\Generated_Source\PSoC4/UART_1_UART.c ****                                         UART_1_GET_UART_RX_CTRL_DROP_ON_PARITY_ERR(config->dropOnPa
 143:.\Generated_Source\PSoC4/UART_1_UART.c ****                                         UART_1_GET_UART_RX_CTRL_DROP_ON_FRAME_ERR(config->dropOnFra
 144:.\Generated_Source\PSoC4/UART_1_UART.c **** 
 145:.\Generated_Source\PSoC4/UART_1_UART.c ****             if(UART_1_UART_PARITY_NONE != config->parity)
 146:.\Generated_Source\PSoC4/UART_1_UART.c ****             {
ARM GAS  C:\Users\ADMINI~1\AppData\Local\Temp\ccT99Q0X.s 			page 4


 147:.\Generated_Source\PSoC4/UART_1_UART.c ****                UART_1_UART_RX_CTRL_REG |= UART_1_GET_UART_RX_CTRL_PARITY(config->parity) |
 148:.\Generated_Source\PSoC4/UART_1_UART.c ****                                                     UART_1_UART_RX_CTRL_PARITY_ENABLED;
 149:.\Generated_Source\PSoC4/UART_1_UART.c ****             }
 150:.\Generated_Source\PSoC4/UART_1_UART.c **** 
 151:.\Generated_Source\PSoC4/UART_1_UART.c ****             UART_1_RX_CTRL_REG      = UART_1_GET_RX_CTRL_DATA_WIDTH(config->dataBits)       |
 152:.\Generated_Source\PSoC4/UART_1_UART.c ****                                                 UART_1_GET_RX_CTRL_MEDIAN(config->enableMedianFilte
 153:.\Generated_Source\PSoC4/UART_1_UART.c ****                                                 UART_1_GET_UART_RX_CTRL_ENABLED(config->direction);
 154:.\Generated_Source\PSoC4/UART_1_UART.c **** 
 155:.\Generated_Source\PSoC4/UART_1_UART.c ****             UART_1_RX_FIFO_CTRL_REG = UART_1_GET_RX_FIFO_CTRL_TRIGGER_LEVEL(config->rxTriggerLevel)
 156:.\Generated_Source\PSoC4/UART_1_UART.c **** 
 157:.\Generated_Source\PSoC4/UART_1_UART.c ****             /* Configure MP address */
 158:.\Generated_Source\PSoC4/UART_1_UART.c ****             UART_1_RX_MATCH_REG     = UART_1_GET_RX_MATCH_ADDR(config->multiprocAddr) |
 159:.\Generated_Source\PSoC4/UART_1_UART.c ****                                                 UART_1_GET_RX_MATCH_MASK(config->multiprocAddrMask)
 160:.\Generated_Source\PSoC4/UART_1_UART.c **** 
 161:.\Generated_Source\PSoC4/UART_1_UART.c ****             /* Configure RX direction */
 162:.\Generated_Source\PSoC4/UART_1_UART.c ****             UART_1_UART_TX_CTRL_REG = UART_1_GET_UART_TX_CTRL_MODE(config->stopBits) |
 163:.\Generated_Source\PSoC4/UART_1_UART.c ****                                                 UART_1_GET_UART_TX_CTRL_RETRY_NACK(config->enableRe
 164:.\Generated_Source\PSoC4/UART_1_UART.c **** 
 165:.\Generated_Source\PSoC4/UART_1_UART.c ****             if(UART_1_UART_PARITY_NONE != config->parity)
 166:.\Generated_Source\PSoC4/UART_1_UART.c ****             {
 167:.\Generated_Source\PSoC4/UART_1_UART.c ****                UART_1_UART_TX_CTRL_REG |= UART_1_GET_UART_TX_CTRL_PARITY(config->parity) |
 168:.\Generated_Source\PSoC4/UART_1_UART.c ****                                                     UART_1_UART_TX_CTRL_PARITY_ENABLED;
 169:.\Generated_Source\PSoC4/UART_1_UART.c ****             }
 170:.\Generated_Source\PSoC4/UART_1_UART.c **** 
 171:.\Generated_Source\PSoC4/UART_1_UART.c ****             UART_1_TX_CTRL_REG      = UART_1_GET_TX_CTRL_DATA_WIDTH(config->dataBits)    |
 172:.\Generated_Source\PSoC4/UART_1_UART.c ****                                                 UART_1_GET_UART_TX_CTRL_ENABLED(config->direction);
 173:.\Generated_Source\PSoC4/UART_1_UART.c **** 
 174:.\Generated_Source\PSoC4/UART_1_UART.c ****             UART_1_TX_FIFO_CTRL_REG = UART_1_GET_TX_FIFO_CTRL_TRIGGER_LEVEL(config->txTriggerLevel)
 175:.\Generated_Source\PSoC4/UART_1_UART.c **** 
 176:.\Generated_Source\PSoC4/UART_1_UART.c ****         #if !(UART_1_CY_SCBIP_V0 || UART_1_CY_SCBIP_V1)
 177:.\Generated_Source\PSoC4/UART_1_UART.c ****             UART_1_UART_FLOW_CTRL_REG = UART_1_GET_UART_FLOW_CTRL_CTS_ENABLE(config->enableCts) | \
 178:.\Generated_Source\PSoC4/UART_1_UART.c ****                                             UART_1_GET_UART_FLOW_CTRL_CTS_POLARITY (config->ctsPola
 179:.\Generated_Source\PSoC4/UART_1_UART.c ****                                             UART_1_GET_UART_FLOW_CTRL_RTS_POLARITY (config->rtsPola
 180:.\Generated_Source\PSoC4/UART_1_UART.c ****                                             UART_1_GET_UART_FLOW_CTRL_TRIGGER_LEVEL(config->rtsRxFi
 181:.\Generated_Source\PSoC4/UART_1_UART.c ****         #endif /* !(UART_1_CY_SCBIP_V0 || UART_1_CY_SCBIP_V1) */
 182:.\Generated_Source\PSoC4/UART_1_UART.c **** 
 183:.\Generated_Source\PSoC4/UART_1_UART.c ****             /* Configure interrupt with UART handler but do not enable it */
 184:.\Generated_Source\PSoC4/UART_1_UART.c ****             CyIntDisable    (UART_1_ISR_NUMBER);
 185:.\Generated_Source\PSoC4/UART_1_UART.c ****             CyIntSetPriority(UART_1_ISR_NUMBER, UART_1_ISR_PRIORITY);
 186:.\Generated_Source\PSoC4/UART_1_UART.c ****             (void) CyIntSetVector(UART_1_ISR_NUMBER, &UART_1_SPI_UART_ISR);
 187:.\Generated_Source\PSoC4/UART_1_UART.c **** 
 188:.\Generated_Source\PSoC4/UART_1_UART.c ****             /* Configure WAKE interrupt */
 189:.\Generated_Source\PSoC4/UART_1_UART.c ****         #if(UART_1_UART_RX_WAKEUP_IRQ)
 190:.\Generated_Source\PSoC4/UART_1_UART.c ****             CyIntDisable    (UART_1_RX_WAKE_ISR_NUMBER);
 191:.\Generated_Source\PSoC4/UART_1_UART.c ****             CyIntSetPriority(UART_1_RX_WAKE_ISR_NUMBER, UART_1_RX_WAKE_ISR_PRIORITY);
 192:.\Generated_Source\PSoC4/UART_1_UART.c ****             (void) CyIntSetVector(UART_1_RX_WAKE_ISR_NUMBER, &UART_1_UART_WAKEUP_ISR);
 193:.\Generated_Source\PSoC4/UART_1_UART.c ****         #endif /* (UART_1_UART_RX_WAKEUP_IRQ) */
 194:.\Generated_Source\PSoC4/UART_1_UART.c **** 
 195:.\Generated_Source\PSoC4/UART_1_UART.c ****             /* Configure interrupt sources */
 196:.\Generated_Source\PSoC4/UART_1_UART.c ****             UART_1_INTR_I2C_EC_MASK_REG = UART_1_NO_INTR_SOURCES;
 197:.\Generated_Source\PSoC4/UART_1_UART.c ****             UART_1_INTR_SPI_EC_MASK_REG = UART_1_NO_INTR_SOURCES;
 198:.\Generated_Source\PSoC4/UART_1_UART.c ****             UART_1_INTR_SLAVE_MASK_REG  = UART_1_NO_INTR_SOURCES;
 199:.\Generated_Source\PSoC4/UART_1_UART.c ****             UART_1_INTR_MASTER_MASK_REG = UART_1_NO_INTR_SOURCES;
 200:.\Generated_Source\PSoC4/UART_1_UART.c ****             UART_1_INTR_RX_MASK_REG     = config->rxInterruptMask;
 201:.\Generated_Source\PSoC4/UART_1_UART.c ****             UART_1_INTR_TX_MASK_REG     = config->txInterruptMask;
 202:.\Generated_Source\PSoC4/UART_1_UART.c **** 
 203:.\Generated_Source\PSoC4/UART_1_UART.c ****             /* Clear RX buffer indexes */
ARM GAS  C:\Users\ADMINI~1\AppData\Local\Temp\ccT99Q0X.s 			page 5


 204:.\Generated_Source\PSoC4/UART_1_UART.c ****             UART_1_rxBufferHead     = 0u;
 205:.\Generated_Source\PSoC4/UART_1_UART.c ****             UART_1_rxBufferTail     = 0u;
 206:.\Generated_Source\PSoC4/UART_1_UART.c ****             UART_1_rxBufferOverflow = 0u;
 207:.\Generated_Source\PSoC4/UART_1_UART.c **** 
 208:.\Generated_Source\PSoC4/UART_1_UART.c ****             /* Clear TX buffer indexes */
 209:.\Generated_Source\PSoC4/UART_1_UART.c ****             UART_1_txBufferHead = 0u;
 210:.\Generated_Source\PSoC4/UART_1_UART.c ****             UART_1_txBufferTail = 0u;
 211:.\Generated_Source\PSoC4/UART_1_UART.c ****         }
 212:.\Generated_Source\PSoC4/UART_1_UART.c ****     }
 213:.\Generated_Source\PSoC4/UART_1_UART.c **** 
 214:.\Generated_Source\PSoC4/UART_1_UART.c **** #else
 215:.\Generated_Source\PSoC4/UART_1_UART.c **** 
 216:.\Generated_Source\PSoC4/UART_1_UART.c ****     /*******************************************************************************
 217:.\Generated_Source\PSoC4/UART_1_UART.c ****     * Function Name: UART_1_UartInit
 218:.\Generated_Source\PSoC4/UART_1_UART.c ****     ********************************************************************************
 219:.\Generated_Source\PSoC4/UART_1_UART.c ****     *
 220:.\Generated_Source\PSoC4/UART_1_UART.c ****     * Summary:
 221:.\Generated_Source\PSoC4/UART_1_UART.c ****     *  Configures the SCB for the UART operation.
 222:.\Generated_Source\PSoC4/UART_1_UART.c ****     *
 223:.\Generated_Source\PSoC4/UART_1_UART.c ****     * Parameters:
 224:.\Generated_Source\PSoC4/UART_1_UART.c ****     *  None
 225:.\Generated_Source\PSoC4/UART_1_UART.c ****     *
 226:.\Generated_Source\PSoC4/UART_1_UART.c ****     * Return:
 227:.\Generated_Source\PSoC4/UART_1_UART.c ****     *  None
 228:.\Generated_Source\PSoC4/UART_1_UART.c ****     *
 229:.\Generated_Source\PSoC4/UART_1_UART.c ****     *******************************************************************************/
 230:.\Generated_Source\PSoC4/UART_1_UART.c ****     void UART_1_UartInit(void)
 231:.\Generated_Source\PSoC4/UART_1_UART.c ****     {
  26              		.loc 1 231 0
  27              		.cfi_startproc
  28 0000 38B5     		push	{r3, r4, r5, lr}
  29              		.cfi_def_cfa_offset 16
  30              		.cfi_offset 3, -16
  31              		.cfi_offset 4, -12
  32              		.cfi_offset 5, -8
  33              		.cfi_offset 14, -4
 232:.\Generated_Source\PSoC4/UART_1_UART.c ****         /* Configure UART interface */
 233:.\Generated_Source\PSoC4/UART_1_UART.c ****         UART_1_CTRL_REG = UART_1_UART_DEFAULT_CTRL;
  34              		.loc 1 233 0
  35 0002 194A     		ldr	r2, .L2
  36 0004 194B     		ldr	r3, .L2+4
  37 0006 1A60     		str	r2, [r3]
 234:.\Generated_Source\PSoC4/UART_1_UART.c **** 
 235:.\Generated_Source\PSoC4/UART_1_UART.c ****         /* Configure sub-mode: UART, SmartCard or IrDA */
 236:.\Generated_Source\PSoC4/UART_1_UART.c ****         UART_1_UART_CTRL_REG = UART_1_UART_DEFAULT_UART_CTRL;
  38              		.loc 1 236 0
  39 0008 0024     		mov	r4, #0
  40 000a 194B     		ldr	r3, .L2+8
  41 000c 1C60     		str	r4, [r3]
 237:.\Generated_Source\PSoC4/UART_1_UART.c **** 
 238:.\Generated_Source\PSoC4/UART_1_UART.c ****         /* Configure RX direction */
 239:.\Generated_Source\PSoC4/UART_1_UART.c ****         UART_1_UART_RX_CTRL_REG = UART_1_UART_DEFAULT_UART_RX_CTRL;
  42              		.loc 1 239 0
  43 000e 0122     		mov	r2, #1
  44 0010 184B     		ldr	r3, .L2+12
  45 0012 1A60     		str	r2, [r3]
 240:.\Generated_Source\PSoC4/UART_1_UART.c ****         UART_1_RX_CTRL_REG      = UART_1_UART_DEFAULT_RX_CTRL;
ARM GAS  C:\Users\ADMINI~1\AppData\Local\Temp\ccT99Q0X.s 			page 6


  46              		.loc 1 240 0
  47 0014 184B     		ldr	r3, .L2+16
  48 0016 1949     		ldr	r1, .L2+20
  49 0018 0B60     		str	r3, [r1]
 241:.\Generated_Source\PSoC4/UART_1_UART.c ****         UART_1_RX_FIFO_CTRL_REG = UART_1_UART_DEFAULT_RX_FIFO_CTRL;
  50              		.loc 1 241 0
  51 001a 0720     		mov	r0, #7
  52 001c 1849     		ldr	r1, .L2+24
  53 001e 0860     		str	r0, [r1]
 242:.\Generated_Source\PSoC4/UART_1_UART.c ****         UART_1_RX_MATCH_REG     = UART_1_UART_DEFAULT_RX_MATCH_REG;
  54              		.loc 1 242 0
  55 0020 1849     		ldr	r1, .L2+28
  56 0022 0C60     		str	r4, [r1]
 243:.\Generated_Source\PSoC4/UART_1_UART.c **** 
 244:.\Generated_Source\PSoC4/UART_1_UART.c ****         /* Configure TX direction */
 245:.\Generated_Source\PSoC4/UART_1_UART.c ****         UART_1_UART_TX_CTRL_REG = UART_1_UART_DEFAULT_UART_TX_CTRL;
  57              		.loc 1 245 0
  58 0024 1849     		ldr	r1, .L2+32
  59 0026 0A60     		str	r2, [r1]
 246:.\Generated_Source\PSoC4/UART_1_UART.c ****         UART_1_TX_CTRL_REG      = UART_1_UART_DEFAULT_TX_CTRL;
  60              		.loc 1 246 0
  61 0028 184A     		ldr	r2, .L2+36
  62 002a 1360     		str	r3, [r2]
 247:.\Generated_Source\PSoC4/UART_1_UART.c ****         UART_1_TX_FIFO_CTRL_REG = UART_1_UART_DEFAULT_TX_FIFO_CTRL;
  63              		.loc 1 247 0
  64 002c 184B     		ldr	r3, .L2+40
  65 002e 1C60     		str	r4, [r3]
 248:.\Generated_Source\PSoC4/UART_1_UART.c **** 
 249:.\Generated_Source\PSoC4/UART_1_UART.c ****     #if !(UART_1_CY_SCBIP_V0 || UART_1_CY_SCBIP_V1)
 250:.\Generated_Source\PSoC4/UART_1_UART.c ****         UART_1_UART_FLOW_CTRL_REG = UART_1_UART_DEFAULT_FLOW_CTRL;
  66              		.loc 1 250 0
  67 0030 0425     		mov	r5, #4
  68 0032 184B     		ldr	r3, .L2+44
  69 0034 1D60     		str	r5, [r3]
 251:.\Generated_Source\PSoC4/UART_1_UART.c ****     #endif /* !(UART_1_CY_SCBIP_V0 || UART_1_CY_SCBIP_V1) */
 252:.\Generated_Source\PSoC4/UART_1_UART.c **** 
 253:.\Generated_Source\PSoC4/UART_1_UART.c ****         /* Configure interrupt with UART handler but do not enable it */
 254:.\Generated_Source\PSoC4/UART_1_UART.c ****     #if(UART_1_SCB_IRQ_INTERNAL)
 255:.\Generated_Source\PSoC4/UART_1_UART.c ****         CyIntDisable    (UART_1_ISR_NUMBER);
  70              		.loc 1 255 0
  71 0036 0230     		add	r0, r0, #2
  72 0038 FFF7FEFF 		bl	CyIntDisable
  73              	.LVL0:
 256:.\Generated_Source\PSoC4/UART_1_UART.c ****         CyIntSetPriority(UART_1_ISR_NUMBER, UART_1_ISR_PRIORITY);
  74              		.loc 1 256 0
  75 003c 0920     		mov	r0, #9
  76 003e 0021     		mov	r1, #0
  77 0040 FFF7FEFF 		bl	CyIntSetPriority
  78              	.LVL1:
 257:.\Generated_Source\PSoC4/UART_1_UART.c ****         (void) CyIntSetVector(UART_1_ISR_NUMBER, &UART_1_SPI_UART_ISR);
  79              		.loc 1 257 0
  80 0044 0920     		mov	r0, #9
  81 0046 1449     		ldr	r1, .L2+48
  82 0048 FFF7FEFF 		bl	CyIntSetVector
  83              	.LVL2:
 258:.\Generated_Source\PSoC4/UART_1_UART.c ****     #endif /* (UART_1_SCB_IRQ_INTERNAL) */
 259:.\Generated_Source\PSoC4/UART_1_UART.c **** 
ARM GAS  C:\Users\ADMINI~1\AppData\Local\Temp\ccT99Q0X.s 			page 7


 260:.\Generated_Source\PSoC4/UART_1_UART.c ****         /* Configure WAKE interrupt */
 261:.\Generated_Source\PSoC4/UART_1_UART.c ****     #if(UART_1_UART_RX_WAKEUP_IRQ)
 262:.\Generated_Source\PSoC4/UART_1_UART.c ****         CyIntDisable    (UART_1_RX_WAKE_ISR_NUMBER);
 263:.\Generated_Source\PSoC4/UART_1_UART.c ****         CyIntSetPriority(UART_1_RX_WAKE_ISR_NUMBER, UART_1_RX_WAKE_ISR_PRIORITY);
 264:.\Generated_Source\PSoC4/UART_1_UART.c ****         (void) CyIntSetVector(UART_1_RX_WAKE_ISR_NUMBER, &UART_1_UART_WAKEUP_ISR);
 265:.\Generated_Source\PSoC4/UART_1_UART.c ****     #endif /* (UART_1_UART_RX_WAKEUP_IRQ) */
 266:.\Generated_Source\PSoC4/UART_1_UART.c **** 
 267:.\Generated_Source\PSoC4/UART_1_UART.c ****         /* Configure interrupt sources */
 268:.\Generated_Source\PSoC4/UART_1_UART.c ****         UART_1_INTR_I2C_EC_MASK_REG = UART_1_UART_DEFAULT_INTR_I2C_EC_MASK;
  84              		.loc 1 268 0
  85 004c 134B     		ldr	r3, .L2+52
  86 004e 1C60     		str	r4, [r3]
 269:.\Generated_Source\PSoC4/UART_1_UART.c ****         UART_1_INTR_SPI_EC_MASK_REG = UART_1_UART_DEFAULT_INTR_SPI_EC_MASK;
  87              		.loc 1 269 0
  88 0050 134B     		ldr	r3, .L2+56
  89 0052 1C60     		str	r4, [r3]
 270:.\Generated_Source\PSoC4/UART_1_UART.c ****         UART_1_INTR_SLAVE_MASK_REG  = UART_1_UART_DEFAULT_INTR_SLAVE_MASK;
  90              		.loc 1 270 0
  91 0054 134B     		ldr	r3, .L2+60
  92 0056 1C60     		str	r4, [r3]
 271:.\Generated_Source\PSoC4/UART_1_UART.c ****         UART_1_INTR_MASTER_MASK_REG = UART_1_UART_DEFAULT_INTR_MASTER_MASK;
  93              		.loc 1 271 0
  94 0058 134B     		ldr	r3, .L2+64
  95 005a 1C60     		str	r4, [r3]
 272:.\Generated_Source\PSoC4/UART_1_UART.c ****         UART_1_INTR_RX_MASK_REG     = UART_1_UART_DEFAULT_INTR_RX_MASK;
  96              		.loc 1 272 0
  97 005c 134B     		ldr	r3, .L2+68
  98 005e 1D60     		str	r5, [r3]
 273:.\Generated_Source\PSoC4/UART_1_UART.c ****         UART_1_INTR_TX_MASK_REG     = UART_1_UART_DEFAULT_INTR_TX_MASK;
  99              		.loc 1 273 0
 100 0060 134B     		ldr	r3, .L2+72
 101 0062 1C60     		str	r4, [r3]
 274:.\Generated_Source\PSoC4/UART_1_UART.c **** 
 275:.\Generated_Source\PSoC4/UART_1_UART.c ****     #if(UART_1_INTERNAL_RX_SW_BUFFER_CONST)
 276:.\Generated_Source\PSoC4/UART_1_UART.c ****         UART_1_rxBufferHead     = 0u;
 277:.\Generated_Source\PSoC4/UART_1_UART.c ****         UART_1_rxBufferTail     = 0u;
 278:.\Generated_Source\PSoC4/UART_1_UART.c ****         UART_1_rxBufferOverflow = 0u;
 279:.\Generated_Source\PSoC4/UART_1_UART.c ****     #endif /* (UART_1_INTERNAL_RX_SW_BUFFER_CONST) */
 280:.\Generated_Source\PSoC4/UART_1_UART.c **** 
 281:.\Generated_Source\PSoC4/UART_1_UART.c ****     #if(UART_1_INTERNAL_TX_SW_BUFFER_CONST)
 282:.\Generated_Source\PSoC4/UART_1_UART.c ****         UART_1_txBufferHead = 0u;
 283:.\Generated_Source\PSoC4/UART_1_UART.c ****         UART_1_txBufferTail = 0u;
 284:.\Generated_Source\PSoC4/UART_1_UART.c ****     #endif /* (UART_1_INTERNAL_TX_SW_BUFFER_CONST) */
 285:.\Generated_Source\PSoC4/UART_1_UART.c ****     }
 102              		.loc 1 285 0
 103              		@ sp needed
 104 0064 38BD     		pop	{r3, r4, r5, pc}
 105              	.L3:
 106 0066 C046     		.align	2
 107              	.L2:
 108 0068 0B000002 		.word	33554443
 109 006c 00002440 		.word	1076101120
 110 0070 40002440 		.word	1076101184
 111 0074 48002440 		.word	1076101192
 112 0078 07000080 		.word	-2147483641
 113 007c 00032440 		.word	1076101888
 114 0080 04032440 		.word	1076101892
ARM GAS  C:\Users\ADMINI~1\AppData\Local\Temp\ccT99Q0X.s 			page 8


 115 0084 10032440 		.word	1076101904
 116 0088 44002440 		.word	1076101188
 117 008c 00022440 		.word	1076101632
 118 0090 04022440 		.word	1076101636
 119 0094 50002440 		.word	1076101200
 120 0098 00000000 		.word	UART_1_SPI_UART_ISR
 121 009c 880E2440 		.word	1076104840
 122 00a0 C80E2440 		.word	1076104904
 123 00a4 480F2440 		.word	1076105032
 124 00a8 080F2440 		.word	1076104968
 125 00ac C80F2440 		.word	1076105160
 126 00b0 880F2440 		.word	1076105096
 127              		.cfi_endproc
 128              	.LFE2:
 129              		.size	UART_1_UartInit, .-UART_1_UartInit
 130              		.section	.text.UART_1_UartPostEnable,"ax",%progbits
 131              		.align	2
 132              		.global	UART_1_UartPostEnable
 133              		.code	16
 134              		.thumb_func
 135              		.type	UART_1_UartPostEnable, %function
 136              	UART_1_UartPostEnable:
 137              	.LFB3:
 286:.\Generated_Source\PSoC4/UART_1_UART.c **** #endif /* (UART_1_SCB_MODE_UNCONFIG_CONST_CFG) */
 287:.\Generated_Source\PSoC4/UART_1_UART.c **** 
 288:.\Generated_Source\PSoC4/UART_1_UART.c **** 
 289:.\Generated_Source\PSoC4/UART_1_UART.c **** /*******************************************************************************
 290:.\Generated_Source\PSoC4/UART_1_UART.c **** * Function Name: UART_1_UartPostEnable
 291:.\Generated_Source\PSoC4/UART_1_UART.c **** ********************************************************************************
 292:.\Generated_Source\PSoC4/UART_1_UART.c **** *
 293:.\Generated_Source\PSoC4/UART_1_UART.c **** * Summary:
 294:.\Generated_Source\PSoC4/UART_1_UART.c **** *  Restores HSIOM settings for the UART output pins (TX and/or RTS) to be 
 295:.\Generated_Source\PSoC4/UART_1_UART.c **** *  controlled by the SCB UART.
 296:.\Generated_Source\PSoC4/UART_1_UART.c **** *
 297:.\Generated_Source\PSoC4/UART_1_UART.c **** * Parameters:
 298:.\Generated_Source\PSoC4/UART_1_UART.c **** *  None
 299:.\Generated_Source\PSoC4/UART_1_UART.c **** *
 300:.\Generated_Source\PSoC4/UART_1_UART.c **** * Return:
 301:.\Generated_Source\PSoC4/UART_1_UART.c **** *  None
 302:.\Generated_Source\PSoC4/UART_1_UART.c **** *
 303:.\Generated_Source\PSoC4/UART_1_UART.c **** *******************************************************************************/
 304:.\Generated_Source\PSoC4/UART_1_UART.c **** void UART_1_UartPostEnable(void)
 305:.\Generated_Source\PSoC4/UART_1_UART.c **** {
 138              		.loc 1 305 0
 139              		.cfi_startproc
 306:.\Generated_Source\PSoC4/UART_1_UART.c **** #if (UART_1_SCB_MODE_UNCONFIG_CONST_CFG)
 307:.\Generated_Source\PSoC4/UART_1_UART.c **** 
 308:.\Generated_Source\PSoC4/UART_1_UART.c **** #if (UART_1_TX_SCL_MISO_PIN)
 309:.\Generated_Source\PSoC4/UART_1_UART.c ****     if (UART_1_CHECK_TX_SCL_MISO_PIN_USED)
 310:.\Generated_Source\PSoC4/UART_1_UART.c ****     {
 311:.\Generated_Source\PSoC4/UART_1_UART.c ****         /* Set SCB UART to drive the output pin */
 312:.\Generated_Source\PSoC4/UART_1_UART.c ****         UART_1_SET_HSIOM_SEL(UART_1_TX_SCL_MISO_HSIOM_REG, UART_1_TX_SCL_MISO_HSIOM_MASK,
 313:.\Generated_Source\PSoC4/UART_1_UART.c ****                                        UART_1_TX_SCL_MISO_HSIOM_POS, UART_1_HSIOM_UART_SEL);
 314:.\Generated_Source\PSoC4/UART_1_UART.c ****     }
 315:.\Generated_Source\PSoC4/UART_1_UART.c **** #endif /* (UART_1_TX_SCL_MISO_PIN_PIN) */
 316:.\Generated_Source\PSoC4/UART_1_UART.c **** 
 317:.\Generated_Source\PSoC4/UART_1_UART.c **** #if (UART_1_RTS_SS0_PIN)
ARM GAS  C:\Users\ADMINI~1\AppData\Local\Temp\ccT99Q0X.s 			page 9


 318:.\Generated_Source\PSoC4/UART_1_UART.c ****     if (UART_1_CHECK_RTS_SS0_PIN_USED)
 319:.\Generated_Source\PSoC4/UART_1_UART.c ****     {
 320:.\Generated_Source\PSoC4/UART_1_UART.c ****         /* Set SCB UART to drive the output pin */
 321:.\Generated_Source\PSoC4/UART_1_UART.c ****         UART_1_SET_HSIOM_SEL(UART_1_RTS_SS0_HSIOM_REG, UART_1_RTS_SS0_HSIOM_MASK,
 322:.\Generated_Source\PSoC4/UART_1_UART.c ****                                        UART_1_RTS_SS0_HSIOM_POS, UART_1_HSIOM_UART_SEL);
 323:.\Generated_Source\PSoC4/UART_1_UART.c ****     }
 324:.\Generated_Source\PSoC4/UART_1_UART.c **** #endif /* (UART_1_RTS_SS0_PIN) */
 325:.\Generated_Source\PSoC4/UART_1_UART.c **** 
 326:.\Generated_Source\PSoC4/UART_1_UART.c **** #else
 327:.\Generated_Source\PSoC4/UART_1_UART.c **** #if (UART_1_UART_TX_PIN)
 328:.\Generated_Source\PSoC4/UART_1_UART.c ****      /* Set SCB UART to drive the output pin */
 329:.\Generated_Source\PSoC4/UART_1_UART.c ****     UART_1_SET_HSIOM_SEL(UART_1_TX_HSIOM_REG, UART_1_TX_HSIOM_MASK,
 140              		.loc 1 329 0
 141 0000 044A     		ldr	r2, .L5
 142 0002 1168     		ldr	r1, [r2]
 143 0004 044B     		ldr	r3, .L5+4
 144 0006 0B40     		and	r3, r1
 145 0008 9021     		mov	r1, #144
 146 000a 0904     		lsl	r1, r1, #16
 147 000c 0B43     		orr	r3, r1
 148 000e 1360     		str	r3, [r2]
 330:.\Generated_Source\PSoC4/UART_1_UART.c ****                                    UART_1_TX_HSIOM_POS, UART_1_HSIOM_UART_SEL);
 331:.\Generated_Source\PSoC4/UART_1_UART.c **** #endif /* (UART_1_UART_TX_PIN) */
 332:.\Generated_Source\PSoC4/UART_1_UART.c **** 
 333:.\Generated_Source\PSoC4/UART_1_UART.c **** #if (UART_1_UART_RTS_PIN)
 334:.\Generated_Source\PSoC4/UART_1_UART.c ****     /* Set SCB UART to drive the output pin */
 335:.\Generated_Source\PSoC4/UART_1_UART.c ****     UART_1_SET_HSIOM_SEL(UART_1_RTS_HSIOM_REG, UART_1_RTS_HSIOM_MASK,
 336:.\Generated_Source\PSoC4/UART_1_UART.c ****                                    UART_1_RTS_HSIOM_POS, UART_1_HSIOM_UART_SEL);
 337:.\Generated_Source\PSoC4/UART_1_UART.c **** #endif /* (UART_1_UART_RTS_PIN) */
 338:.\Generated_Source\PSoC4/UART_1_UART.c **** 
 339:.\Generated_Source\PSoC4/UART_1_UART.c **** #endif /* (UART_1_SCB_MODE_UNCONFIG_CONST_CFG) */
 340:.\Generated_Source\PSoC4/UART_1_UART.c **** }
 149              		.loc 1 340 0
 150              		@ sp needed
 151 0010 7047     		bx	lr
 152              	.L6:
 153 0012 C046     		.align	2
 154              	.L5:
 155 0014 00010240 		.word	1073873152
 156 0018 FFFF0FFF 		.word	-15728641
 157              		.cfi_endproc
 158              	.LFE3:
 159              		.size	UART_1_UartPostEnable, .-UART_1_UartPostEnable
 160              		.section	.text.UART_1_UartStop,"ax",%progbits
 161              		.align	2
 162              		.global	UART_1_UartStop
 163              		.code	16
 164              		.thumb_func
 165              		.type	UART_1_UartStop, %function
 166              	UART_1_UartStop:
 167              	.LFB4:
 341:.\Generated_Source\PSoC4/UART_1_UART.c **** 
 342:.\Generated_Source\PSoC4/UART_1_UART.c **** 
 343:.\Generated_Source\PSoC4/UART_1_UART.c **** /*******************************************************************************
 344:.\Generated_Source\PSoC4/UART_1_UART.c **** * Function Name: UART_1_UartStop
 345:.\Generated_Source\PSoC4/UART_1_UART.c **** ********************************************************************************
 346:.\Generated_Source\PSoC4/UART_1_UART.c **** *
ARM GAS  C:\Users\ADMINI~1\AppData\Local\Temp\ccT99Q0X.s 			page 10


 347:.\Generated_Source\PSoC4/UART_1_UART.c **** * Summary:
 348:.\Generated_Source\PSoC4/UART_1_UART.c **** *  Changes the HSIOM settings for the UART output pins (TX and/or RTS) to keep
 349:.\Generated_Source\PSoC4/UART_1_UART.c **** *  them inactive after the block is disabled. The output pins are controlled by
 350:.\Generated_Source\PSoC4/UART_1_UART.c **** *  the GPIO data register. Also, the function disables the skip start feature to
 351:.\Generated_Source\PSoC4/UART_1_UART.c **** *  not cause it to trigger after the component is enabled.
 352:.\Generated_Source\PSoC4/UART_1_UART.c **** *
 353:.\Generated_Source\PSoC4/UART_1_UART.c **** * Parameters:
 354:.\Generated_Source\PSoC4/UART_1_UART.c **** *  None
 355:.\Generated_Source\PSoC4/UART_1_UART.c **** *
 356:.\Generated_Source\PSoC4/UART_1_UART.c **** * Return:
 357:.\Generated_Source\PSoC4/UART_1_UART.c **** *  None
 358:.\Generated_Source\PSoC4/UART_1_UART.c **** *
 359:.\Generated_Source\PSoC4/UART_1_UART.c **** *******************************************************************************/
 360:.\Generated_Source\PSoC4/UART_1_UART.c **** void UART_1_UartStop(void)
 361:.\Generated_Source\PSoC4/UART_1_UART.c **** {
 168              		.loc 1 361 0
 169              		.cfi_startproc
 362:.\Generated_Source\PSoC4/UART_1_UART.c **** #if(UART_1_SCB_MODE_UNCONFIG_CONST_CFG)
 363:.\Generated_Source\PSoC4/UART_1_UART.c ****     #if (UART_1_TX_SCL_MISO_PIN)
 364:.\Generated_Source\PSoC4/UART_1_UART.c ****         if (UART_1_CHECK_TX_SCL_MISO_PIN_USED)
 365:.\Generated_Source\PSoC4/UART_1_UART.c ****         {
 366:.\Generated_Source\PSoC4/UART_1_UART.c ****             /* Set GPIO to drive output pin */
 367:.\Generated_Source\PSoC4/UART_1_UART.c ****             UART_1_SET_HSIOM_SEL(UART_1_TX_SCL_MISO_HSIOM_REG, UART_1_TX_SCL_MISO_HSIOM_MASK,
 368:.\Generated_Source\PSoC4/UART_1_UART.c ****                                            UART_1_TX_SCL_MISO_HSIOM_POS, UART_1_HSIOM_GPIO_SEL);
 369:.\Generated_Source\PSoC4/UART_1_UART.c ****         }
 370:.\Generated_Source\PSoC4/UART_1_UART.c ****     #endif /* (UART_1_TX_SCL_MISO_PIN_PIN) */
 371:.\Generated_Source\PSoC4/UART_1_UART.c **** 
 372:.\Generated_Source\PSoC4/UART_1_UART.c ****     #if (UART_1_RTS_SS0_PIN)
 373:.\Generated_Source\PSoC4/UART_1_UART.c ****         if (UART_1_CHECK_RTS_SS0_PIN_USED)
 374:.\Generated_Source\PSoC4/UART_1_UART.c ****         {
 375:.\Generated_Source\PSoC4/UART_1_UART.c ****             /* Set output pin state after block is disabled */
 376:.\Generated_Source\PSoC4/UART_1_UART.c ****             UART_1_uart_rts_spi_ss0_Write(UART_1_GET_UART_RTS_INACTIVE);
 377:.\Generated_Source\PSoC4/UART_1_UART.c **** 
 378:.\Generated_Source\PSoC4/UART_1_UART.c ****             /* Set GPIO to drive output pin */
 379:.\Generated_Source\PSoC4/UART_1_UART.c ****             UART_1_SET_HSIOM_SEL(UART_1_RTS_SS0_HSIOM_REG, UART_1_RTS_SS0_HSIOM_MASK,
 380:.\Generated_Source\PSoC4/UART_1_UART.c ****                                            UART_1_RTS_SS0_HSIOM_POS, UART_1_HSIOM_GPIO_SEL);
 381:.\Generated_Source\PSoC4/UART_1_UART.c ****         }
 382:.\Generated_Source\PSoC4/UART_1_UART.c ****     #endif /* (UART_1_SS0_PIN) */
 383:.\Generated_Source\PSoC4/UART_1_UART.c **** 
 384:.\Generated_Source\PSoC4/UART_1_UART.c **** #else
 385:.\Generated_Source\PSoC4/UART_1_UART.c ****     #if (UART_1_UART_TX_PIN)
 386:.\Generated_Source\PSoC4/UART_1_UART.c ****         /* Set GPIO to drive output pin */
 387:.\Generated_Source\PSoC4/UART_1_UART.c ****         UART_1_SET_HSIOM_SEL(UART_1_TX_HSIOM_REG, UART_1_TX_HSIOM_MASK,
 170              		.loc 1 387 0
 171 0000 024A     		ldr	r2, .L8
 172 0002 1168     		ldr	r1, [r2]
 173 0004 024B     		ldr	r3, .L8+4
 174 0006 0B40     		and	r3, r1
 175 0008 1360     		str	r3, [r2]
 388:.\Generated_Source\PSoC4/UART_1_UART.c ****                                        UART_1_TX_HSIOM_POS, UART_1_HSIOM_GPIO_SEL);
 389:.\Generated_Source\PSoC4/UART_1_UART.c ****     #endif /* (UART_1_UART_TX_PIN) */
 390:.\Generated_Source\PSoC4/UART_1_UART.c **** 
 391:.\Generated_Source\PSoC4/UART_1_UART.c ****     #if (UART_1_UART_RTS_PIN)
 392:.\Generated_Source\PSoC4/UART_1_UART.c ****         /* Set output pin state after block is disabled */
 393:.\Generated_Source\PSoC4/UART_1_UART.c ****         UART_1_rts_Write(UART_1_GET_UART_RTS_INACTIVE);
 394:.\Generated_Source\PSoC4/UART_1_UART.c **** 
 395:.\Generated_Source\PSoC4/UART_1_UART.c ****         /* Set GPIO to drive output pin */
ARM GAS  C:\Users\ADMINI~1\AppData\Local\Temp\ccT99Q0X.s 			page 11


 396:.\Generated_Source\PSoC4/UART_1_UART.c ****         UART_1_SET_HSIOM_SEL(UART_1_RTS_HSIOM_REG, UART_1_RTS_HSIOM_MASK,
 397:.\Generated_Source\PSoC4/UART_1_UART.c ****                                        UART_1_RTS_HSIOM_POS, UART_1_HSIOM_GPIO_SEL);
 398:.\Generated_Source\PSoC4/UART_1_UART.c ****     #endif /* (UART_1_UART_RTS_PIN) */
 399:.\Generated_Source\PSoC4/UART_1_UART.c **** 
 400:.\Generated_Source\PSoC4/UART_1_UART.c **** #endif /* (UART_1_SCB_MODE_UNCONFIG_CONST_CFG) */
 401:.\Generated_Source\PSoC4/UART_1_UART.c **** 
 402:.\Generated_Source\PSoC4/UART_1_UART.c **** #if (UART_1_UART_WAKE_ENABLE_CONST)
 403:.\Generated_Source\PSoC4/UART_1_UART.c ****     /* Disable skip start feature used for wakeup */
 404:.\Generated_Source\PSoC4/UART_1_UART.c ****     UART_1_UART_RX_CTRL_REG &= (uint32) ~UART_1_UART_RX_CTRL_SKIP_START;
 405:.\Generated_Source\PSoC4/UART_1_UART.c **** #endif /* (UART_1_UART_WAKE_ENABLE_CONST) */
 406:.\Generated_Source\PSoC4/UART_1_UART.c **** }
 176              		.loc 1 406 0
 177              		@ sp needed
 178 000a 7047     		bx	lr
 179              	.L9:
 180              		.align	2
 181              	.L8:
 182 000c 00010240 		.word	1073873152
 183 0010 FFFF0FFF 		.word	-15728641
 184              		.cfi_endproc
 185              	.LFE4:
 186              		.size	UART_1_UartStop, .-UART_1_UartStop
 187              		.section	.text.UART_1_UartSetRxAddress,"ax",%progbits
 188              		.align	2
 189              		.global	UART_1_UartSetRxAddress
 190              		.code	16
 191              		.thumb_func
 192              		.type	UART_1_UartSetRxAddress, %function
 193              	UART_1_UartSetRxAddress:
 194              	.LFB5:
 407:.\Generated_Source\PSoC4/UART_1_UART.c **** 
 408:.\Generated_Source\PSoC4/UART_1_UART.c **** 
 409:.\Generated_Source\PSoC4/UART_1_UART.c **** /*******************************************************************************
 410:.\Generated_Source\PSoC4/UART_1_UART.c **** * Function Name: UART_1_UartSetRxAddress
 411:.\Generated_Source\PSoC4/UART_1_UART.c **** ********************************************************************************
 412:.\Generated_Source\PSoC4/UART_1_UART.c **** *
 413:.\Generated_Source\PSoC4/UART_1_UART.c **** * Summary:
 414:.\Generated_Source\PSoC4/UART_1_UART.c **** *  Sets the hardware detectable receiver address for the UART in the
 415:.\Generated_Source\PSoC4/UART_1_UART.c **** *  Multiprocessor mode.
 416:.\Generated_Source\PSoC4/UART_1_UART.c **** *
 417:.\Generated_Source\PSoC4/UART_1_UART.c **** * Parameters:
 418:.\Generated_Source\PSoC4/UART_1_UART.c **** *  address: Address for hardware address detection.
 419:.\Generated_Source\PSoC4/UART_1_UART.c **** *
 420:.\Generated_Source\PSoC4/UART_1_UART.c **** * Return:
 421:.\Generated_Source\PSoC4/UART_1_UART.c **** *  None
 422:.\Generated_Source\PSoC4/UART_1_UART.c **** *
 423:.\Generated_Source\PSoC4/UART_1_UART.c **** *******************************************************************************/
 424:.\Generated_Source\PSoC4/UART_1_UART.c **** void UART_1_UartSetRxAddress(uint32 address)
 425:.\Generated_Source\PSoC4/UART_1_UART.c **** {
 195              		.loc 1 425 0
 196              		.cfi_startproc
 197              	.LVL3:
 426:.\Generated_Source\PSoC4/UART_1_UART.c ****      uint32 matchReg;
 427:.\Generated_Source\PSoC4/UART_1_UART.c **** 
 428:.\Generated_Source\PSoC4/UART_1_UART.c ****     matchReg = UART_1_RX_MATCH_REG;
 198              		.loc 1 428 0
 199 0000 034A     		ldr	r2, .L11
ARM GAS  C:\Users\ADMINI~1\AppData\Local\Temp\ccT99Q0X.s 			page 12


 200 0002 1368     		ldr	r3, [r2]
 201              	.LVL4:
 429:.\Generated_Source\PSoC4/UART_1_UART.c **** 
 430:.\Generated_Source\PSoC4/UART_1_UART.c ****     matchReg &= ((uint32) ~UART_1_RX_MATCH_ADDR_MASK); /* Clear address bits */
 202              		.loc 1 430 0
 203 0004 FF21     		mov	r1, #255
 204 0006 8B43     		bic	r3, r1
 205              	.LVL5:
 431:.\Generated_Source\PSoC4/UART_1_UART.c ****     matchReg |= ((uint32)  (address & UART_1_RX_MATCH_ADDR_MASK)); /* Set address  */
 206              		.loc 1 431 0
 207 0008 0840     		and	r0, r1
 208              	.LVL6:
 209 000a 1843     		orr	r0, r3
 210              	.LVL7:
 432:.\Generated_Source\PSoC4/UART_1_UART.c **** 
 433:.\Generated_Source\PSoC4/UART_1_UART.c ****     UART_1_RX_MATCH_REG = matchReg;
 211              		.loc 1 433 0
 212 000c 1060     		str	r0, [r2]
 434:.\Generated_Source\PSoC4/UART_1_UART.c **** }
 213              		.loc 1 434 0
 214              		@ sp needed
 215 000e 7047     		bx	lr
 216              	.L12:
 217              		.align	2
 218              	.L11:
 219 0010 10032440 		.word	1076101904
 220              		.cfi_endproc
 221              	.LFE5:
 222              		.size	UART_1_UartSetRxAddress, .-UART_1_UartSetRxAddress
 223              		.section	.text.UART_1_UartSetRxAddressMask,"ax",%progbits
 224              		.align	2
 225              		.global	UART_1_UartSetRxAddressMask
 226              		.code	16
 227              		.thumb_func
 228              		.type	UART_1_UartSetRxAddressMask, %function
 229              	UART_1_UartSetRxAddressMask:
 230              	.LFB6:
 435:.\Generated_Source\PSoC4/UART_1_UART.c **** 
 436:.\Generated_Source\PSoC4/UART_1_UART.c **** 
 437:.\Generated_Source\PSoC4/UART_1_UART.c **** /*******************************************************************************
 438:.\Generated_Source\PSoC4/UART_1_UART.c **** * Function Name: UART_1_UartSetRxAddressMask
 439:.\Generated_Source\PSoC4/UART_1_UART.c **** ********************************************************************************
 440:.\Generated_Source\PSoC4/UART_1_UART.c **** *
 441:.\Generated_Source\PSoC4/UART_1_UART.c **** * Summary:
 442:.\Generated_Source\PSoC4/UART_1_UART.c **** *  Sets the hardware address mask for the UART in the Multiprocessor mode.
 443:.\Generated_Source\PSoC4/UART_1_UART.c **** *
 444:.\Generated_Source\PSoC4/UART_1_UART.c **** * Parameters:
 445:.\Generated_Source\PSoC4/UART_1_UART.c **** *  addressMask: Address mask.
 446:.\Generated_Source\PSoC4/UART_1_UART.c **** *   0 - address bit does not care while comparison.
 447:.\Generated_Source\PSoC4/UART_1_UART.c **** *   1 - address bit is significant while comparison.
 448:.\Generated_Source\PSoC4/UART_1_UART.c **** *
 449:.\Generated_Source\PSoC4/UART_1_UART.c **** * Return:
 450:.\Generated_Source\PSoC4/UART_1_UART.c **** *  None
 451:.\Generated_Source\PSoC4/UART_1_UART.c **** *
 452:.\Generated_Source\PSoC4/UART_1_UART.c **** *******************************************************************************/
 453:.\Generated_Source\PSoC4/UART_1_UART.c **** void UART_1_UartSetRxAddressMask(uint32 addressMask)
 454:.\Generated_Source\PSoC4/UART_1_UART.c **** {
ARM GAS  C:\Users\ADMINI~1\AppData\Local\Temp\ccT99Q0X.s 			page 13


 231              		.loc 1 454 0
 232              		.cfi_startproc
 233              	.LVL8:
 455:.\Generated_Source\PSoC4/UART_1_UART.c ****     uint32 matchReg;
 456:.\Generated_Source\PSoC4/UART_1_UART.c **** 
 457:.\Generated_Source\PSoC4/UART_1_UART.c ****     matchReg = UART_1_RX_MATCH_REG;
 234              		.loc 1 457 0
 235 0000 034A     		ldr	r2, .L14
 236 0002 1168     		ldr	r1, [r2]
 237              	.LVL9:
 458:.\Generated_Source\PSoC4/UART_1_UART.c **** 
 459:.\Generated_Source\PSoC4/UART_1_UART.c ****     matchReg &= ((uint32) ~UART_1_RX_MATCH_MASK_MASK); /* Clear address mask bits */
 238              		.loc 1 459 0
 239 0004 034B     		ldr	r3, .L14+4
 240 0006 0B40     		and	r3, r1
 241              	.LVL10:
 460:.\Generated_Source\PSoC4/UART_1_UART.c ****     matchReg |= ((uint32) (addressMask << UART_1_RX_MATCH_MASK_POS));
 242              		.loc 1 460 0
 243 0008 0004     		lsl	r0, r0, #16
 244              	.LVL11:
 245 000a 1843     		orr	r0, r3
 246              	.LVL12:
 461:.\Generated_Source\PSoC4/UART_1_UART.c **** 
 462:.\Generated_Source\PSoC4/UART_1_UART.c ****     UART_1_RX_MATCH_REG = matchReg;
 247              		.loc 1 462 0
 248 000c 1060     		str	r0, [r2]
 463:.\Generated_Source\PSoC4/UART_1_UART.c **** }
 249              		.loc 1 463 0
 250              		@ sp needed
 251 000e 7047     		bx	lr
 252              	.L15:
 253              		.align	2
 254              	.L14:
 255 0010 10032440 		.word	1076101904
 256 0014 FFFF00FF 		.word	-16711681
 257              		.cfi_endproc
 258              	.LFE6:
 259              		.size	UART_1_UartSetRxAddressMask, .-UART_1_UartSetRxAddressMask
 260              		.section	.text.UART_1_UartGetChar,"ax",%progbits
 261              		.align	2
 262              		.global	UART_1_UartGetChar
 263              		.code	16
 264              		.thumb_func
 265              		.type	UART_1_UartGetChar, %function
 266              	UART_1_UartGetChar:
 267              	.LFB7:
 464:.\Generated_Source\PSoC4/UART_1_UART.c **** 
 465:.\Generated_Source\PSoC4/UART_1_UART.c **** 
 466:.\Generated_Source\PSoC4/UART_1_UART.c **** #if(UART_1_UART_RX_DIRECTION)
 467:.\Generated_Source\PSoC4/UART_1_UART.c ****     /*******************************************************************************
 468:.\Generated_Source\PSoC4/UART_1_UART.c ****     * Function Name: UART_1_UartGetChar
 469:.\Generated_Source\PSoC4/UART_1_UART.c ****     ********************************************************************************
 470:.\Generated_Source\PSoC4/UART_1_UART.c ****     *
 471:.\Generated_Source\PSoC4/UART_1_UART.c ****     * Summary:
 472:.\Generated_Source\PSoC4/UART_1_UART.c ****     *  Retrieves the next data element from the receive buffer.
 473:.\Generated_Source\PSoC4/UART_1_UART.c ****     *  This function is designed for ASCII characters and returns a char
 474:.\Generated_Source\PSoC4/UART_1_UART.c ****     *  where 1 to 255 are valid characters and 0 indicates an error occurred or
ARM GAS  C:\Users\ADMINI~1\AppData\Local\Temp\ccT99Q0X.s 			page 14


 475:.\Generated_Source\PSoC4/UART_1_UART.c ****     *  no data present.
 476:.\Generated_Source\PSoC4/UART_1_UART.c ****     *  - The RX software buffer is disabled: returns the data element
 477:.\Generated_Source\PSoC4/UART_1_UART.c ****     *    retrieved from the RX FIFO.
 478:.\Generated_Source\PSoC4/UART_1_UART.c ****     *    Undefined data will be returned if the RX FIFO is empty.
 479:.\Generated_Source\PSoC4/UART_1_UART.c ****     *  - The RX software buffer is enabled: returns the data element from
 480:.\Generated_Source\PSoC4/UART_1_UART.c ****     *    the software receive buffer.
 481:.\Generated_Source\PSoC4/UART_1_UART.c ****     *
 482:.\Generated_Source\PSoC4/UART_1_UART.c ****     * Parameters:
 483:.\Generated_Source\PSoC4/UART_1_UART.c ****     *  None
 484:.\Generated_Source\PSoC4/UART_1_UART.c ****     *
 485:.\Generated_Source\PSoC4/UART_1_UART.c ****     * Return:
 486:.\Generated_Source\PSoC4/UART_1_UART.c ****     *  The next data element from the receive buffer.
 487:.\Generated_Source\PSoC4/UART_1_UART.c ****     *  ASCII character values from 1 to 255 are valid.
 488:.\Generated_Source\PSoC4/UART_1_UART.c ****     *  A returned zero signifies an error condition or no data available.
 489:.\Generated_Source\PSoC4/UART_1_UART.c ****     *
 490:.\Generated_Source\PSoC4/UART_1_UART.c ****     * Side Effects:
 491:.\Generated_Source\PSoC4/UART_1_UART.c ****     *  The errors bits may not correspond with reading characters due to RX FIFO
 492:.\Generated_Source\PSoC4/UART_1_UART.c ****     *  and software buffer usage.
 493:.\Generated_Source\PSoC4/UART_1_UART.c ****     *  RX software buffer is enabled: The internal software buffer overflow
 494:.\Generated_Source\PSoC4/UART_1_UART.c ****     *  does not treat as an error condition.
 495:.\Generated_Source\PSoC4/UART_1_UART.c ****     *  Check SCB_rxBufferOverflow to capture that error condition.
 496:.\Generated_Source\PSoC4/UART_1_UART.c ****     *
 497:.\Generated_Source\PSoC4/UART_1_UART.c ****     *******************************************************************************/
 498:.\Generated_Source\PSoC4/UART_1_UART.c ****     uint32 UART_1_UartGetChar(void)
 499:.\Generated_Source\PSoC4/UART_1_UART.c ****     {
 268              		.loc 1 499 0
 269              		.cfi_startproc
 270 0000 08B5     		push	{r3, lr}
 271              		.cfi_def_cfa_offset 8
 272              		.cfi_offset 3, -8
 273              		.cfi_offset 14, -4
 274              	.LVL13:
 500:.\Generated_Source\PSoC4/UART_1_UART.c ****         uint32 rxData = 0u;
 501:.\Generated_Source\PSoC4/UART_1_UART.c **** 
 502:.\Generated_Source\PSoC4/UART_1_UART.c ****         /* Reads data only if there is data to read */
 503:.\Generated_Source\PSoC4/UART_1_UART.c ****         if (0u != UART_1_SpiUartGetRxBufferSize())
 275              		.loc 1 503 0
 276 0002 FFF7FEFF 		bl	UART_1_SpiUartGetRxBufferSize
 277              	.LVL14:
 278 0006 0028     		cmp	r0, #0
 279 0008 02D0     		beq	.L19
 504:.\Generated_Source\PSoC4/UART_1_UART.c ****         {
 505:.\Generated_Source\PSoC4/UART_1_UART.c ****             rxData = UART_1_SpiUartReadRxData();
 280              		.loc 1 505 0
 281 000a FFF7FEFF 		bl	UART_1_SpiUartReadRxData
 282              	.LVL15:
 283 000e 00E0     		b	.L17
 284              	.LVL16:
 285              	.L19:
 500:.\Generated_Source\PSoC4/UART_1_UART.c ****         uint32 rxData = 0u;
 286              		.loc 1 500 0
 287 0010 0020     		mov	r0, #0
 288              	.LVL17:
 289              	.L17:
 506:.\Generated_Source\PSoC4/UART_1_UART.c ****         }
 507:.\Generated_Source\PSoC4/UART_1_UART.c **** 
 508:.\Generated_Source\PSoC4/UART_1_UART.c ****         if (UART_1_CHECK_INTR_RX(UART_1_INTR_RX_ERR))
ARM GAS  C:\Users\ADMINI~1\AppData\Local\Temp\ccT99Q0X.s 			page 15


 290              		.loc 1 508 0
 291 0012 054B     		ldr	r3, .L20
 292 0014 1A68     		ldr	r2, [r3]
 293 0016 D823     		mov	r3, #216
 294 0018 9B00     		lsl	r3, r3, #2
 295 001a 1A42     		tst	r2, r3
 296 001c 03D0     		beq	.L18
 297              	.LVL18:
 509:.\Generated_Source\PSoC4/UART_1_UART.c ****         {
 510:.\Generated_Source\PSoC4/UART_1_UART.c ****             rxData = 0u; /* Error occurred: returns zero */
 511:.\Generated_Source\PSoC4/UART_1_UART.c ****             UART_1_ClearRxInterruptSource(UART_1_INTR_RX_ERR);
 298              		.loc 1 511 0
 299 001e 1A1C     		mov	r2, r3
 300 0020 014B     		ldr	r3, .L20
 301 0022 1A60     		str	r2, [r3]
 510:.\Generated_Source\PSoC4/UART_1_UART.c ****             UART_1_ClearRxInterruptSource(UART_1_INTR_RX_ERR);
 302              		.loc 1 510 0
 303 0024 0020     		mov	r0, #0
 304              	.LVL19:
 305              	.L18:
 512:.\Generated_Source\PSoC4/UART_1_UART.c ****         }
 513:.\Generated_Source\PSoC4/UART_1_UART.c **** 
 514:.\Generated_Source\PSoC4/UART_1_UART.c ****         return (rxData);
 515:.\Generated_Source\PSoC4/UART_1_UART.c ****     }
 306              		.loc 1 515 0
 307              		@ sp needed
 308 0026 08BD     		pop	{r3, pc}
 309              	.L21:
 310              		.align	2
 311              	.L20:
 312 0028 C00F2440 		.word	1076105152
 313              		.cfi_endproc
 314              	.LFE7:
 315              		.size	UART_1_UartGetChar, .-UART_1_UartGetChar
 316              		.section	.text.UART_1_UartGetByte,"ax",%progbits
 317              		.align	2
 318              		.global	UART_1_UartGetByte
 319              		.code	16
 320              		.thumb_func
 321              		.type	UART_1_UartGetByte, %function
 322              	UART_1_UartGetByte:
 323              	.LFB8:
 516:.\Generated_Source\PSoC4/UART_1_UART.c **** 
 517:.\Generated_Source\PSoC4/UART_1_UART.c **** 
 518:.\Generated_Source\PSoC4/UART_1_UART.c ****     /*******************************************************************************
 519:.\Generated_Source\PSoC4/UART_1_UART.c ****     * Function Name: UART_1_UartGetByte
 520:.\Generated_Source\PSoC4/UART_1_UART.c ****     ********************************************************************************
 521:.\Generated_Source\PSoC4/UART_1_UART.c ****     *
 522:.\Generated_Source\PSoC4/UART_1_UART.c ****     * Summary:
 523:.\Generated_Source\PSoC4/UART_1_UART.c ****     *  Retrieves the next data element from the receive buffer, returns the
 524:.\Generated_Source\PSoC4/UART_1_UART.c ****     *  received byte and error condition.
 525:.\Generated_Source\PSoC4/UART_1_UART.c ****     *   - The RX software buffer is disabled: returns the data element retrieved
 526:.\Generated_Source\PSoC4/UART_1_UART.c ****     *     from the RX FIFO. Undefined data will be returned if the RX FIFO is
 527:.\Generated_Source\PSoC4/UART_1_UART.c ****     *     empty.
 528:.\Generated_Source\PSoC4/UART_1_UART.c ****     *   - The RX software buffer is enabled: returns data element from the
 529:.\Generated_Source\PSoC4/UART_1_UART.c ****     *     software receive buffer.
 530:.\Generated_Source\PSoC4/UART_1_UART.c ****     *
ARM GAS  C:\Users\ADMINI~1\AppData\Local\Temp\ccT99Q0X.s 			page 16


 531:.\Generated_Source\PSoC4/UART_1_UART.c ****     * Parameters:
 532:.\Generated_Source\PSoC4/UART_1_UART.c ****     *  None
 533:.\Generated_Source\PSoC4/UART_1_UART.c ****     *
 534:.\Generated_Source\PSoC4/UART_1_UART.c ****     * Return:
 535:.\Generated_Source\PSoC4/UART_1_UART.c ****     *  Bits 7-0 contain the next data element from the receive buffer and
 536:.\Generated_Source\PSoC4/UART_1_UART.c ****     *  other bits contain the error condition.
 537:.\Generated_Source\PSoC4/UART_1_UART.c ****     *
 538:.\Generated_Source\PSoC4/UART_1_UART.c ****     * Side Effects:
 539:.\Generated_Source\PSoC4/UART_1_UART.c ****     *  The errors bits may not correspond with reading characters due to RX FIFO
 540:.\Generated_Source\PSoC4/UART_1_UART.c ****     *  and software buffer usage.
 541:.\Generated_Source\PSoC4/UART_1_UART.c ****     *  RX software buffer is disabled: The internal software buffer overflow
 542:.\Generated_Source\PSoC4/UART_1_UART.c ****     *  is not returned as status by this function.
 543:.\Generated_Source\PSoC4/UART_1_UART.c ****     *  Check SCB_rxBufferOverflow to capture that error condition.
 544:.\Generated_Source\PSoC4/UART_1_UART.c ****     *
 545:.\Generated_Source\PSoC4/UART_1_UART.c ****     *******************************************************************************/
 546:.\Generated_Source\PSoC4/UART_1_UART.c ****     uint32 UART_1_UartGetByte(void)
 547:.\Generated_Source\PSoC4/UART_1_UART.c ****     {
 324              		.loc 1 547 0
 325              		.cfi_startproc
 326 0000 08B5     		push	{r3, lr}
 327              		.cfi_def_cfa_offset 8
 328              		.cfi_offset 3, -8
 329              		.cfi_offset 14, -4
 548:.\Generated_Source\PSoC4/UART_1_UART.c ****         uint32 rxData;
 549:.\Generated_Source\PSoC4/UART_1_UART.c ****         uint32 tmpStatus;
 550:.\Generated_Source\PSoC4/UART_1_UART.c **** 
 551:.\Generated_Source\PSoC4/UART_1_UART.c ****         #if (UART_1_CHECK_RX_SW_BUFFER)
 552:.\Generated_Source\PSoC4/UART_1_UART.c ****         {
 553:.\Generated_Source\PSoC4/UART_1_UART.c ****             UART_1_DisableInt();
 554:.\Generated_Source\PSoC4/UART_1_UART.c ****         }
 555:.\Generated_Source\PSoC4/UART_1_UART.c ****         #endif
 556:.\Generated_Source\PSoC4/UART_1_UART.c **** 
 557:.\Generated_Source\PSoC4/UART_1_UART.c ****         if (0u != UART_1_SpiUartGetRxBufferSize())
 330              		.loc 1 557 0
 331 0002 FFF7FEFF 		bl	UART_1_SpiUartGetRxBufferSize
 332              	.LVL20:
 333 0006 0028     		cmp	r0, #0
 334 0008 02D0     		beq	.L23
 558:.\Generated_Source\PSoC4/UART_1_UART.c ****         {
 559:.\Generated_Source\PSoC4/UART_1_UART.c ****             /* Enables interrupt to receive more bytes: at least one byte is in
 560:.\Generated_Source\PSoC4/UART_1_UART.c ****             * buffer.
 561:.\Generated_Source\PSoC4/UART_1_UART.c ****             */
 562:.\Generated_Source\PSoC4/UART_1_UART.c ****             #if (UART_1_CHECK_RX_SW_BUFFER)
 563:.\Generated_Source\PSoC4/UART_1_UART.c ****             {            
 564:.\Generated_Source\PSoC4/UART_1_UART.c ****                 UART_1_EnableInt();
 565:.\Generated_Source\PSoC4/UART_1_UART.c ****             }
 566:.\Generated_Source\PSoC4/UART_1_UART.c ****             #endif
 567:.\Generated_Source\PSoC4/UART_1_UART.c **** 
 568:.\Generated_Source\PSoC4/UART_1_UART.c ****             /* Get received byte */
 569:.\Generated_Source\PSoC4/UART_1_UART.c ****             rxData = UART_1_SpiUartReadRxData();
 335              		.loc 1 569 0
 336 000a FFF7FEFF 		bl	UART_1_SpiUartReadRxData
 337              	.LVL21:
 338 000e 01E0     		b	.L24
 339              	.LVL22:
 340              	.L23:
 570:.\Generated_Source\PSoC4/UART_1_UART.c ****         }
ARM GAS  C:\Users\ADMINI~1\AppData\Local\Temp\ccT99Q0X.s 			page 17


 571:.\Generated_Source\PSoC4/UART_1_UART.c ****         else
 572:.\Generated_Source\PSoC4/UART_1_UART.c ****         {
 573:.\Generated_Source\PSoC4/UART_1_UART.c ****             /* Reads a byte directly from RX FIFO: underflow is raised in the case
 574:.\Generated_Source\PSoC4/UART_1_UART.c ****             * of empty. Otherwise the first received byte will be read.
 575:.\Generated_Source\PSoC4/UART_1_UART.c ****             */
 576:.\Generated_Source\PSoC4/UART_1_UART.c ****             rxData = UART_1_RX_FIFO_RD_REG;
 341              		.loc 1 576 0
 342 0010 054B     		ldr	r3, .L25
 343 0012 1868     		ldr	r0, [r3]
 344              	.LVL23:
 345              	.L24:
 577:.\Generated_Source\PSoC4/UART_1_UART.c **** 
 578:.\Generated_Source\PSoC4/UART_1_UART.c ****             /* Enables interrupt to receive more bytes.
 579:.\Generated_Source\PSoC4/UART_1_UART.c ****             * The RX_NOT_EMPTY interrupt is cleared by the interrupt routine
 580:.\Generated_Source\PSoC4/UART_1_UART.c ****             * in case the byte was received and read by code above.
 581:.\Generated_Source\PSoC4/UART_1_UART.c ****             */
 582:.\Generated_Source\PSoC4/UART_1_UART.c ****             #if (UART_1_CHECK_RX_SW_BUFFER)
 583:.\Generated_Source\PSoC4/UART_1_UART.c ****             {
 584:.\Generated_Source\PSoC4/UART_1_UART.c ****                 UART_1_EnableInt();
 585:.\Generated_Source\PSoC4/UART_1_UART.c ****             }
 586:.\Generated_Source\PSoC4/UART_1_UART.c ****             #endif
 587:.\Generated_Source\PSoC4/UART_1_UART.c ****         }
 588:.\Generated_Source\PSoC4/UART_1_UART.c **** 
 589:.\Generated_Source\PSoC4/UART_1_UART.c ****         /* Get and clear RX error mask */
 590:.\Generated_Source\PSoC4/UART_1_UART.c ****         tmpStatus = (UART_1_GetRxInterruptSource() & UART_1_INTR_RX_ERR);
 346              		.loc 1 590 0
 347 0014 054A     		ldr	r2, .L25+4
 348 0016 1368     		ldr	r3, [r2]
 349 0018 D821     		mov	r1, #216
 350 001a 8900     		lsl	r1, r1, #2
 351 001c 0B40     		and	r3, r1
 352              	.LVL24:
 591:.\Generated_Source\PSoC4/UART_1_UART.c ****         UART_1_ClearRxInterruptSource(UART_1_INTR_RX_ERR);
 353              		.loc 1 591 0
 354 001e 1160     		str	r1, [r2]
 592:.\Generated_Source\PSoC4/UART_1_UART.c **** 
 593:.\Generated_Source\PSoC4/UART_1_UART.c ****         /* Puts together data and error status:
 594:.\Generated_Source\PSoC4/UART_1_UART.c ****         * MP mode and accept address: 9th bit is set to notify mark.
 595:.\Generated_Source\PSoC4/UART_1_UART.c ****         */
 596:.\Generated_Source\PSoC4/UART_1_UART.c ****         rxData |= ((uint32) (tmpStatus << 8u));
 355              		.loc 1 596 0
 356 0020 1B02     		lsl	r3, r3, #8
 357              	.LVL25:
 358 0022 1843     		orr	r0, r3
 359              	.LVL26:
 597:.\Generated_Source\PSoC4/UART_1_UART.c **** 
 598:.\Generated_Source\PSoC4/UART_1_UART.c ****         return (rxData);
 599:.\Generated_Source\PSoC4/UART_1_UART.c ****     }
 360              		.loc 1 599 0
 361              		@ sp needed
 362 0024 08BD     		pop	{r3, pc}
 363              	.L26:
 364 0026 C046     		.align	2
 365              	.L25:
 366 0028 40032440 		.word	1076101952
 367 002c C00F2440 		.word	1076105152
 368              		.cfi_endproc
ARM GAS  C:\Users\ADMINI~1\AppData\Local\Temp\ccT99Q0X.s 			page 18


 369              	.LFE8:
 370              		.size	UART_1_UartGetByte, .-UART_1_UartGetByte
 371              		.section	.text.UART_1_UartSetRtsPolarity,"ax",%progbits
 372              		.align	2
 373              		.global	UART_1_UartSetRtsPolarity
 374              		.code	16
 375              		.thumb_func
 376              		.type	UART_1_UartSetRtsPolarity, %function
 377              	UART_1_UartSetRtsPolarity:
 378              	.LFB9:
 600:.\Generated_Source\PSoC4/UART_1_UART.c **** 
 601:.\Generated_Source\PSoC4/UART_1_UART.c **** 
 602:.\Generated_Source\PSoC4/UART_1_UART.c ****     #if !(UART_1_CY_SCBIP_V0 || UART_1_CY_SCBIP_V1)
 603:.\Generated_Source\PSoC4/UART_1_UART.c ****         /*******************************************************************************
 604:.\Generated_Source\PSoC4/UART_1_UART.c ****         * Function Name: UART_1_UartSetRtsPolarity
 605:.\Generated_Source\PSoC4/UART_1_UART.c ****         ********************************************************************************
 606:.\Generated_Source\PSoC4/UART_1_UART.c ****         *
 607:.\Generated_Source\PSoC4/UART_1_UART.c ****         * Summary:
 608:.\Generated_Source\PSoC4/UART_1_UART.c ****         *  Sets active polarity of RTS output signal.
 609:.\Generated_Source\PSoC4/UART_1_UART.c ****         *
 610:.\Generated_Source\PSoC4/UART_1_UART.c ****         * Parameters:
 611:.\Generated_Source\PSoC4/UART_1_UART.c ****         *  polarity: Active polarity of RTS output signal.
 612:.\Generated_Source\PSoC4/UART_1_UART.c ****         *   UART_1_UART_RTS_ACTIVE_LOW  - RTS signal is active low.
 613:.\Generated_Source\PSoC4/UART_1_UART.c ****         *   UART_1_UART_RTS_ACTIVE_HIGH - RTS signal is active high.
 614:.\Generated_Source\PSoC4/UART_1_UART.c ****         *
 615:.\Generated_Source\PSoC4/UART_1_UART.c ****         * Return:
 616:.\Generated_Source\PSoC4/UART_1_UART.c ****         *  None
 617:.\Generated_Source\PSoC4/UART_1_UART.c ****         *
 618:.\Generated_Source\PSoC4/UART_1_UART.c ****         *******************************************************************************/
 619:.\Generated_Source\PSoC4/UART_1_UART.c ****         void UART_1_UartSetRtsPolarity(uint32 polarity)
 620:.\Generated_Source\PSoC4/UART_1_UART.c ****         {
 379              		.loc 1 620 0
 380              		.cfi_startproc
 381              	.LVL27:
 621:.\Generated_Source\PSoC4/UART_1_UART.c ****             if(0u != polarity)
 382              		.loc 1 621 0
 383 0000 0028     		cmp	r0, #0
 384 0002 06D0     		beq	.L28
 622:.\Generated_Source\PSoC4/UART_1_UART.c ****             {
 623:.\Generated_Source\PSoC4/UART_1_UART.c ****                 UART_1_UART_FLOW_CTRL_REG |= (uint32)  UART_1_UART_FLOW_CTRL_RTS_POLARITY;
 385              		.loc 1 623 0
 386 0004 064A     		ldr	r2, .L30
 387 0006 1368     		ldr	r3, [r2]
 388 0008 8021     		mov	r1, #128
 389 000a 4902     		lsl	r1, r1, #9
 390 000c 0B43     		orr	r3, r1
 391 000e 1360     		str	r3, [r2]
 392 0010 04E0     		b	.L27
 393              	.L28:
 624:.\Generated_Source\PSoC4/UART_1_UART.c ****             }
 625:.\Generated_Source\PSoC4/UART_1_UART.c ****             else
 626:.\Generated_Source\PSoC4/UART_1_UART.c ****             {
 627:.\Generated_Source\PSoC4/UART_1_UART.c ****                 UART_1_UART_FLOW_CTRL_REG &= (uint32) ~UART_1_UART_FLOW_CTRL_RTS_POLARITY;
 394              		.loc 1 627 0
 395 0012 034A     		ldr	r2, .L30
 396 0014 1168     		ldr	r1, [r2]
 397 0016 034B     		ldr	r3, .L30+4
ARM GAS  C:\Users\ADMINI~1\AppData\Local\Temp\ccT99Q0X.s 			page 19


 398 0018 0B40     		and	r3, r1
 399 001a 1360     		str	r3, [r2]
 400              	.L27:
 628:.\Generated_Source\PSoC4/UART_1_UART.c ****             }
 629:.\Generated_Source\PSoC4/UART_1_UART.c ****         }
 401              		.loc 1 629 0
 402              		@ sp needed
 403 001c 7047     		bx	lr
 404              	.L31:
 405 001e C046     		.align	2
 406              	.L30:
 407 0020 50002440 		.word	1076101200
 408 0024 FFFFFEFF 		.word	-65537
 409              		.cfi_endproc
 410              	.LFE9:
 411              		.size	UART_1_UartSetRtsPolarity, .-UART_1_UartSetRtsPolarity
 412              		.section	.text.UART_1_UartSetRtsFifoLevel,"ax",%progbits
 413              		.align	2
 414              		.global	UART_1_UartSetRtsFifoLevel
 415              		.code	16
 416              		.thumb_func
 417              		.type	UART_1_UartSetRtsFifoLevel, %function
 418              	UART_1_UartSetRtsFifoLevel:
 419              	.LFB10:
 630:.\Generated_Source\PSoC4/UART_1_UART.c **** 
 631:.\Generated_Source\PSoC4/UART_1_UART.c **** 
 632:.\Generated_Source\PSoC4/UART_1_UART.c ****         /*******************************************************************************
 633:.\Generated_Source\PSoC4/UART_1_UART.c ****         * Function Name: UART_1_UartSetRtsFifoLevel
 634:.\Generated_Source\PSoC4/UART_1_UART.c ****         ********************************************************************************
 635:.\Generated_Source\PSoC4/UART_1_UART.c ****         *
 636:.\Generated_Source\PSoC4/UART_1_UART.c ****         * Summary:
 637:.\Generated_Source\PSoC4/UART_1_UART.c ****         *  Sets level in the RX FIFO for RTS signal activation.
 638:.\Generated_Source\PSoC4/UART_1_UART.c ****         *  While the RX FIFO has fewer entries than the RX FIFO level the RTS signal
 639:.\Generated_Source\PSoC4/UART_1_UART.c ****         *  remains active, otherwise the RTS signal becomes inactive.
 640:.\Generated_Source\PSoC4/UART_1_UART.c ****         *
 641:.\Generated_Source\PSoC4/UART_1_UART.c ****         * Parameters:
 642:.\Generated_Source\PSoC4/UART_1_UART.c ****         *  level: Level in the RX FIFO for RTS signal activation.
 643:.\Generated_Source\PSoC4/UART_1_UART.c ****         *         The range of valid level values is between 0 and RX FIFO depth - 1.
 644:.\Generated_Source\PSoC4/UART_1_UART.c ****         *         Setting level value to 0 disables RTS signal activation.
 645:.\Generated_Source\PSoC4/UART_1_UART.c ****         *
 646:.\Generated_Source\PSoC4/UART_1_UART.c ****         * Return:
 647:.\Generated_Source\PSoC4/UART_1_UART.c ****         *  None
 648:.\Generated_Source\PSoC4/UART_1_UART.c ****         *
 649:.\Generated_Source\PSoC4/UART_1_UART.c ****         *******************************************************************************/
 650:.\Generated_Source\PSoC4/UART_1_UART.c ****         void UART_1_UartSetRtsFifoLevel(uint32 level)
 651:.\Generated_Source\PSoC4/UART_1_UART.c ****         {
 420              		.loc 1 651 0
 421              		.cfi_startproc
 422              	.LVL28:
 652:.\Generated_Source\PSoC4/UART_1_UART.c ****             uint32 uartFlowCtrl;
 653:.\Generated_Source\PSoC4/UART_1_UART.c **** 
 654:.\Generated_Source\PSoC4/UART_1_UART.c ****             uartFlowCtrl = UART_1_UART_FLOW_CTRL_REG;
 423              		.loc 1 654 0
 424 0000 034A     		ldr	r2, .L33
 425 0002 1368     		ldr	r3, [r2]
 426              	.LVL29:
 655:.\Generated_Source\PSoC4/UART_1_UART.c **** 
ARM GAS  C:\Users\ADMINI~1\AppData\Local\Temp\ccT99Q0X.s 			page 20


 656:.\Generated_Source\PSoC4/UART_1_UART.c ****             uartFlowCtrl &= ((uint32) ~UART_1_UART_FLOW_CTRL_TRIGGER_LEVEL_MASK); /* Clear level ma
 427              		.loc 1 656 0
 428 0004 0F21     		mov	r1, #15
 429 0006 8B43     		bic	r3, r1
 430              	.LVL30:
 657:.\Generated_Source\PSoC4/UART_1_UART.c ****             uartFlowCtrl |= ((uint32) (UART_1_UART_FLOW_CTRL_TRIGGER_LEVEL_MASK & level));
 431              		.loc 1 657 0
 432 0008 0840     		and	r0, r1
 433              	.LVL31:
 434 000a 1843     		orr	r0, r3
 435              	.LVL32:
 658:.\Generated_Source\PSoC4/UART_1_UART.c **** 
 659:.\Generated_Source\PSoC4/UART_1_UART.c ****             UART_1_UART_FLOW_CTRL_REG = uartFlowCtrl;
 436              		.loc 1 659 0
 437 000c 1060     		str	r0, [r2]
 660:.\Generated_Source\PSoC4/UART_1_UART.c ****         }
 438              		.loc 1 660 0
 439              		@ sp needed
 440 000e 7047     		bx	lr
 441              	.L34:
 442              		.align	2
 443              	.L33:
 444 0010 50002440 		.word	1076101200
 445              		.cfi_endproc
 446              	.LFE10:
 447              		.size	UART_1_UartSetRtsFifoLevel, .-UART_1_UartSetRtsFifoLevel
 448              		.section	.text.UART_1_UartPutString,"ax",%progbits
 449              		.align	2
 450              		.global	UART_1_UartPutString
 451              		.code	16
 452              		.thumb_func
 453              		.type	UART_1_UartPutString, %function
 454              	UART_1_UartPutString:
 455              	.LFB11:
 661:.\Generated_Source\PSoC4/UART_1_UART.c ****     #endif /* !(UART_1_CY_SCBIP_V0 || UART_1_CY_SCBIP_V1) */
 662:.\Generated_Source\PSoC4/UART_1_UART.c **** 
 663:.\Generated_Source\PSoC4/UART_1_UART.c **** #endif /* (UART_1_UART_RX_DIRECTION) */
 664:.\Generated_Source\PSoC4/UART_1_UART.c **** 
 665:.\Generated_Source\PSoC4/UART_1_UART.c **** 
 666:.\Generated_Source\PSoC4/UART_1_UART.c **** #if(UART_1_UART_TX_DIRECTION)
 667:.\Generated_Source\PSoC4/UART_1_UART.c ****     /*******************************************************************************
 668:.\Generated_Source\PSoC4/UART_1_UART.c ****     * Function Name: UART_1_UartPutString
 669:.\Generated_Source\PSoC4/UART_1_UART.c ****     ********************************************************************************
 670:.\Generated_Source\PSoC4/UART_1_UART.c ****     *
 671:.\Generated_Source\PSoC4/UART_1_UART.c ****     * Summary:
 672:.\Generated_Source\PSoC4/UART_1_UART.c ****     *  Places a NULL terminated string in the transmit buffer to be sent at the
 673:.\Generated_Source\PSoC4/UART_1_UART.c ****     *  next available bus time.
 674:.\Generated_Source\PSoC4/UART_1_UART.c ****     *  This function is blocking and waits until there is space available to put
 675:.\Generated_Source\PSoC4/UART_1_UART.c ****     *  all the requested data into the  transmit buffer.
 676:.\Generated_Source\PSoC4/UART_1_UART.c ****     *
 677:.\Generated_Source\PSoC4/UART_1_UART.c ****     * Parameters:
 678:.\Generated_Source\PSoC4/UART_1_UART.c ****     *  string: pointer to the null terminated string array to be placed in the
 679:.\Generated_Source\PSoC4/UART_1_UART.c ****     *          transmit buffer.
 680:.\Generated_Source\PSoC4/UART_1_UART.c ****     *
 681:.\Generated_Source\PSoC4/UART_1_UART.c ****     * Return:
 682:.\Generated_Source\PSoC4/UART_1_UART.c ****     *  None
 683:.\Generated_Source\PSoC4/UART_1_UART.c ****     *
ARM GAS  C:\Users\ADMINI~1\AppData\Local\Temp\ccT99Q0X.s 			page 21


 684:.\Generated_Source\PSoC4/UART_1_UART.c ****     *******************************************************************************/
 685:.\Generated_Source\PSoC4/UART_1_UART.c ****     void UART_1_UartPutString(const char8 string[])
 686:.\Generated_Source\PSoC4/UART_1_UART.c ****     {
 456              		.loc 1 686 0
 457              		.cfi_startproc
 458              	.LVL33:
 459 0000 38B5     		push	{r3, r4, r5, lr}
 460              		.cfi_def_cfa_offset 16
 461              		.cfi_offset 3, -16
 462              		.cfi_offset 4, -12
 463              		.cfi_offset 5, -8
 464              		.cfi_offset 14, -4
 465 0002 051C     		mov	r5, r0
 466              	.LVL34:
 687:.\Generated_Source\PSoC4/UART_1_UART.c ****         uint32 bufIndex;
 688:.\Generated_Source\PSoC4/UART_1_UART.c **** 
 689:.\Generated_Source\PSoC4/UART_1_UART.c ****         bufIndex = 0u;
 467              		.loc 1 689 0
 468 0004 0024     		mov	r4, #0
 690:.\Generated_Source\PSoC4/UART_1_UART.c **** 
 691:.\Generated_Source\PSoC4/UART_1_UART.c ****         /* Blocks the control flow until all data has been sent */
 692:.\Generated_Source\PSoC4/UART_1_UART.c ****         while(string[bufIndex] != ((char8) 0))
 469              		.loc 1 692 0
 470 0006 02E0     		b	.L36
 471              	.LVL35:
 472              	.L37:
 693:.\Generated_Source\PSoC4/UART_1_UART.c ****         {
 694:.\Generated_Source\PSoC4/UART_1_UART.c ****             UART_1_UartPutChar((uint32) string[bufIndex]);
 473              		.loc 1 694 0
 474 0008 FFF7FEFF 		bl	UART_1_SpiUartWriteTxData
 475              	.LVL36:
 695:.\Generated_Source\PSoC4/UART_1_UART.c ****             bufIndex++;
 476              		.loc 1 695 0
 477 000c 0134     		add	r4, r4, #1
 478              	.LVL37:
 479              	.L36:
 692:.\Generated_Source\PSoC4/UART_1_UART.c ****         {
 480              		.loc 1 692 0
 481 000e 285D     		ldrb	r0, [r5, r4]
 482 0010 0028     		cmp	r0, #0
 483 0012 F9D1     		bne	.L37
 696:.\Generated_Source\PSoC4/UART_1_UART.c ****         }
 697:.\Generated_Source\PSoC4/UART_1_UART.c ****     }
 484              		.loc 1 697 0
 485              		@ sp needed
 486              	.LVL38:
 487              	.LVL39:
 488 0014 38BD     		pop	{r3, r4, r5, pc}
 489              		.cfi_endproc
 490              	.LFE11:
 491              		.size	UART_1_UartPutString, .-UART_1_UartPutString
 492 0016 C046     		.section	.text.UART_1_UartPutCRLF,"ax",%progbits
 493              		.align	2
 494              		.global	UART_1_UartPutCRLF
 495              		.code	16
 496              		.thumb_func
 497              		.type	UART_1_UartPutCRLF, %function
ARM GAS  C:\Users\ADMINI~1\AppData\Local\Temp\ccT99Q0X.s 			page 22


 498              	UART_1_UartPutCRLF:
 499              	.LFB12:
 698:.\Generated_Source\PSoC4/UART_1_UART.c **** 
 699:.\Generated_Source\PSoC4/UART_1_UART.c **** 
 700:.\Generated_Source\PSoC4/UART_1_UART.c ****     /*******************************************************************************
 701:.\Generated_Source\PSoC4/UART_1_UART.c ****     * Function Name: UART_1_UartPutCRLF
 702:.\Generated_Source\PSoC4/UART_1_UART.c ****     ********************************************************************************
 703:.\Generated_Source\PSoC4/UART_1_UART.c ****     *
 704:.\Generated_Source\PSoC4/UART_1_UART.c ****     * Summary:
 705:.\Generated_Source\PSoC4/UART_1_UART.c ****     *  Places a byte of data followed by a carriage return (0x0D) and
 706:.\Generated_Source\PSoC4/UART_1_UART.c ****     *  line feed (0x0A) into the transmit buffer.
 707:.\Generated_Source\PSoC4/UART_1_UART.c ****     *  This function is blocking and waits until there is space available to put
 708:.\Generated_Source\PSoC4/UART_1_UART.c ****     *  all the requested data into the  transmit buffer.
 709:.\Generated_Source\PSoC4/UART_1_UART.c ****     *
 710:.\Generated_Source\PSoC4/UART_1_UART.c ****     * Parameters:
 711:.\Generated_Source\PSoC4/UART_1_UART.c ****     *  txDataByte : the data to be transmitted.
 712:.\Generated_Source\PSoC4/UART_1_UART.c ****     *
 713:.\Generated_Source\PSoC4/UART_1_UART.c ****     * Return:
 714:.\Generated_Source\PSoC4/UART_1_UART.c ****     *  None
 715:.\Generated_Source\PSoC4/UART_1_UART.c ****     *
 716:.\Generated_Source\PSoC4/UART_1_UART.c ****     *******************************************************************************/
 717:.\Generated_Source\PSoC4/UART_1_UART.c ****     void UART_1_UartPutCRLF(uint32 txDataByte)
 718:.\Generated_Source\PSoC4/UART_1_UART.c ****     {
 500              		.loc 1 718 0
 501              		.cfi_startproc
 502              	.LVL40:
 503 0000 08B5     		push	{r3, lr}
 504              		.cfi_def_cfa_offset 8
 505              		.cfi_offset 3, -8
 506              		.cfi_offset 14, -4
 719:.\Generated_Source\PSoC4/UART_1_UART.c ****         UART_1_UartPutChar(txDataByte);  /* Blocks control flow until all data has been sent */
 507              		.loc 1 719 0
 508 0002 FFF7FEFF 		bl	UART_1_SpiUartWriteTxData
 509              	.LVL41:
 720:.\Generated_Source\PSoC4/UART_1_UART.c ****         UART_1_UartPutChar(0x0Du);       /* Blocks control flow until all data has been sent */
 510              		.loc 1 720 0
 511 0006 0D20     		mov	r0, #13
 512 0008 FFF7FEFF 		bl	UART_1_SpiUartWriteTxData
 513              	.LVL42:
 721:.\Generated_Source\PSoC4/UART_1_UART.c ****         UART_1_UartPutChar(0x0Au);       /* Blocks control flow until all data has been sent */
 514              		.loc 1 721 0
 515 000c 0A20     		mov	r0, #10
 516 000e FFF7FEFF 		bl	UART_1_SpiUartWriteTxData
 517              	.LVL43:
 722:.\Generated_Source\PSoC4/UART_1_UART.c ****     }
 518              		.loc 1 722 0
 519              		@ sp needed
 520 0012 08BD     		pop	{r3, pc}
 521              		.cfi_endproc
 522              	.LFE12:
 523              		.size	UART_1_UartPutCRLF, .-UART_1_UartPutCRLF
 524              		.section	.text.UART_1_UartEnableCts,"ax",%progbits
 525              		.align	2
 526              		.global	UART_1_UartEnableCts
 527              		.code	16
 528              		.thumb_func
 529              		.type	UART_1_UartEnableCts, %function
ARM GAS  C:\Users\ADMINI~1\AppData\Local\Temp\ccT99Q0X.s 			page 23


 530              	UART_1_UartEnableCts:
 531              	.LFB13:
 723:.\Generated_Source\PSoC4/UART_1_UART.c **** 
 724:.\Generated_Source\PSoC4/UART_1_UART.c **** 
 725:.\Generated_Source\PSoC4/UART_1_UART.c ****     #if !(UART_1_CY_SCBIP_V0 || UART_1_CY_SCBIP_V1)
 726:.\Generated_Source\PSoC4/UART_1_UART.c ****         /*******************************************************************************
 727:.\Generated_Source\PSoC4/UART_1_UART.c ****         * Function Name: UART_1SCB_UartEnableCts
 728:.\Generated_Source\PSoC4/UART_1_UART.c ****         ********************************************************************************
 729:.\Generated_Source\PSoC4/UART_1_UART.c ****         *
 730:.\Generated_Source\PSoC4/UART_1_UART.c ****         * Summary:
 731:.\Generated_Source\PSoC4/UART_1_UART.c ****         *  Enables usage of CTS input signal by the UART transmitter.
 732:.\Generated_Source\PSoC4/UART_1_UART.c ****         *
 733:.\Generated_Source\PSoC4/UART_1_UART.c ****         * Parameters:
 734:.\Generated_Source\PSoC4/UART_1_UART.c ****         *  None
 735:.\Generated_Source\PSoC4/UART_1_UART.c ****         *
 736:.\Generated_Source\PSoC4/UART_1_UART.c ****         * Return:
 737:.\Generated_Source\PSoC4/UART_1_UART.c ****         *  None
 738:.\Generated_Source\PSoC4/UART_1_UART.c ****         *
 739:.\Generated_Source\PSoC4/UART_1_UART.c ****         *******************************************************************************/
 740:.\Generated_Source\PSoC4/UART_1_UART.c ****         void UART_1_UartEnableCts(void)
 741:.\Generated_Source\PSoC4/UART_1_UART.c ****         {
 532              		.loc 1 741 0
 533              		.cfi_startproc
 742:.\Generated_Source\PSoC4/UART_1_UART.c ****             UART_1_UART_FLOW_CTRL_REG |= (uint32)  UART_1_UART_FLOW_CTRL_CTS_ENABLE;
 534              		.loc 1 742 0
 535 0000 034A     		ldr	r2, .L40
 536 0002 1368     		ldr	r3, [r2]
 537 0004 8021     		mov	r1, #128
 538 0006 8904     		lsl	r1, r1, #18
 539 0008 0B43     		orr	r3, r1
 540 000a 1360     		str	r3, [r2]
 743:.\Generated_Source\PSoC4/UART_1_UART.c ****         }
 541              		.loc 1 743 0
 542              		@ sp needed
 543 000c 7047     		bx	lr
 544              	.L41:
 545 000e C046     		.align	2
 546              	.L40:
 547 0010 50002440 		.word	1076101200
 548              		.cfi_endproc
 549              	.LFE13:
 550              		.size	UART_1_UartEnableCts, .-UART_1_UartEnableCts
 551              		.section	.text.UART_1_UartDisableCts,"ax",%progbits
 552              		.align	2
 553              		.global	UART_1_UartDisableCts
 554              		.code	16
 555              		.thumb_func
 556              		.type	UART_1_UartDisableCts, %function
 557              	UART_1_UartDisableCts:
 558              	.LFB14:
 744:.\Generated_Source\PSoC4/UART_1_UART.c **** 
 745:.\Generated_Source\PSoC4/UART_1_UART.c **** 
 746:.\Generated_Source\PSoC4/UART_1_UART.c ****         /*******************************************************************************
 747:.\Generated_Source\PSoC4/UART_1_UART.c ****         * Function Name: UART_1_UartDisableCts
 748:.\Generated_Source\PSoC4/UART_1_UART.c ****         ********************************************************************************
 749:.\Generated_Source\PSoC4/UART_1_UART.c ****         *
 750:.\Generated_Source\PSoC4/UART_1_UART.c ****         * Summary:
ARM GAS  C:\Users\ADMINI~1\AppData\Local\Temp\ccT99Q0X.s 			page 24


 751:.\Generated_Source\PSoC4/UART_1_UART.c ****         *  Disables usage of CTS input signal by the UART transmitter.
 752:.\Generated_Source\PSoC4/UART_1_UART.c ****         *
 753:.\Generated_Source\PSoC4/UART_1_UART.c ****         * Parameters:
 754:.\Generated_Source\PSoC4/UART_1_UART.c ****         *  None
 755:.\Generated_Source\PSoC4/UART_1_UART.c ****         *
 756:.\Generated_Source\PSoC4/UART_1_UART.c ****         * Return:
 757:.\Generated_Source\PSoC4/UART_1_UART.c ****         *  None
 758:.\Generated_Source\PSoC4/UART_1_UART.c ****         *
 759:.\Generated_Source\PSoC4/UART_1_UART.c ****         *******************************************************************************/
 760:.\Generated_Source\PSoC4/UART_1_UART.c ****         void UART_1_UartDisableCts(void)
 761:.\Generated_Source\PSoC4/UART_1_UART.c ****         {
 559              		.loc 1 761 0
 560              		.cfi_startproc
 762:.\Generated_Source\PSoC4/UART_1_UART.c ****             UART_1_UART_FLOW_CTRL_REG &= (uint32) ~UART_1_UART_FLOW_CTRL_CTS_ENABLE;
 561              		.loc 1 762 0
 562 0000 024A     		ldr	r2, .L43
 563 0002 1168     		ldr	r1, [r2]
 564 0004 024B     		ldr	r3, .L43+4
 565 0006 0B40     		and	r3, r1
 566 0008 1360     		str	r3, [r2]
 763:.\Generated_Source\PSoC4/UART_1_UART.c ****         }
 567              		.loc 1 763 0
 568              		@ sp needed
 569 000a 7047     		bx	lr
 570              	.L44:
 571              		.align	2
 572              	.L43:
 573 000c 50002440 		.word	1076101200
 574 0010 FFFFFFFD 		.word	-33554433
 575              		.cfi_endproc
 576              	.LFE14:
 577              		.size	UART_1_UartDisableCts, .-UART_1_UartDisableCts
 578              		.section	.text.UART_1_UartSetCtsPolarity,"ax",%progbits
 579              		.align	2
 580              		.global	UART_1_UartSetCtsPolarity
 581              		.code	16
 582              		.thumb_func
 583              		.type	UART_1_UartSetCtsPolarity, %function
 584              	UART_1_UartSetCtsPolarity:
 585              	.LFB15:
 764:.\Generated_Source\PSoC4/UART_1_UART.c **** 
 765:.\Generated_Source\PSoC4/UART_1_UART.c **** 
 766:.\Generated_Source\PSoC4/UART_1_UART.c ****         /*******************************************************************************
 767:.\Generated_Source\PSoC4/UART_1_UART.c ****         * Function Name: UART_1_UartSetCtsPolarity
 768:.\Generated_Source\PSoC4/UART_1_UART.c ****         ********************************************************************************
 769:.\Generated_Source\PSoC4/UART_1_UART.c ****         *
 770:.\Generated_Source\PSoC4/UART_1_UART.c ****         * Summary:
 771:.\Generated_Source\PSoC4/UART_1_UART.c ****         *  Sets active polarity of CTS input signal.
 772:.\Generated_Source\PSoC4/UART_1_UART.c ****         *
 773:.\Generated_Source\PSoC4/UART_1_UART.c ****         * Parameters:
 774:.\Generated_Source\PSoC4/UART_1_UART.c ****         *  polarity: Active polarity of CTS output signal.
 775:.\Generated_Source\PSoC4/UART_1_UART.c ****         *   UART_1_UART_CTS_ACTIVE_LOW  - CTS signal is active low.
 776:.\Generated_Source\PSoC4/UART_1_UART.c ****         *   UART_1_UART_CTS_ACTIVE_HIGH - CTS signal is active high.
 777:.\Generated_Source\PSoC4/UART_1_UART.c ****         *
 778:.\Generated_Source\PSoC4/UART_1_UART.c ****         * Return:
 779:.\Generated_Source\PSoC4/UART_1_UART.c ****         *  None
 780:.\Generated_Source\PSoC4/UART_1_UART.c ****         *
ARM GAS  C:\Users\ADMINI~1\AppData\Local\Temp\ccT99Q0X.s 			page 25


 781:.\Generated_Source\PSoC4/UART_1_UART.c ****         *******************************************************************************/
 782:.\Generated_Source\PSoC4/UART_1_UART.c ****         void UART_1_UartSetCtsPolarity(uint32 polarity)
 783:.\Generated_Source\PSoC4/UART_1_UART.c ****         {
 586              		.loc 1 783 0
 587              		.cfi_startproc
 588              	.LVL44:
 784:.\Generated_Source\PSoC4/UART_1_UART.c ****             if (0u != polarity)
 589              		.loc 1 784 0
 590 0000 0028     		cmp	r0, #0
 591 0002 06D0     		beq	.L46
 785:.\Generated_Source\PSoC4/UART_1_UART.c ****             {
 786:.\Generated_Source\PSoC4/UART_1_UART.c ****                 UART_1_UART_FLOW_CTRL_REG |= (uint32)  UART_1_UART_FLOW_CTRL_CTS_POLARITY;
 592              		.loc 1 786 0
 593 0004 064A     		ldr	r2, .L48
 594 0006 1368     		ldr	r3, [r2]
 595 0008 8021     		mov	r1, #128
 596 000a 4904     		lsl	r1, r1, #17
 597 000c 0B43     		orr	r3, r1
 598 000e 1360     		str	r3, [r2]
 599 0010 04E0     		b	.L45
 600              	.L46:
 787:.\Generated_Source\PSoC4/UART_1_UART.c ****             }
 788:.\Generated_Source\PSoC4/UART_1_UART.c ****             else
 789:.\Generated_Source\PSoC4/UART_1_UART.c ****             {
 790:.\Generated_Source\PSoC4/UART_1_UART.c ****                 UART_1_UART_FLOW_CTRL_REG &= (uint32) ~UART_1_UART_FLOW_CTRL_CTS_POLARITY;
 601              		.loc 1 790 0
 602 0012 034A     		ldr	r2, .L48
 603 0014 1168     		ldr	r1, [r2]
 604 0016 034B     		ldr	r3, .L48+4
 605 0018 0B40     		and	r3, r1
 606 001a 1360     		str	r3, [r2]
 607              	.L45:
 791:.\Generated_Source\PSoC4/UART_1_UART.c ****             }
 792:.\Generated_Source\PSoC4/UART_1_UART.c ****         }
 608              		.loc 1 792 0
 609              		@ sp needed
 610 001c 7047     		bx	lr
 611              	.L49:
 612 001e C046     		.align	2
 613              	.L48:
 614 0020 50002440 		.word	1076101200
 615 0024 FFFFFFFE 		.word	-16777217
 616              		.cfi_endproc
 617              	.LFE15:
 618              		.size	UART_1_UartSetCtsPolarity, .-UART_1_UartSetCtsPolarity
 619              		.text
 620              	.Letext0:
 621              		.file 2 "Generated_Source\\PSoC4/cytypes.h"
 622              		.file 3 "Generated_Source\\PSoC4/CyLib.h"
 623              		.file 4 ".\\Generated_Source\\PSoC4\\UART_1_SPI_UART.h"